
main.elf:     file format elf32-littlearm
main.elf
architecture: arm, flags 0x00000112:
EXEC_P, HAS_SYMS, D_PAGED
start address 0x00000000

Program Header:
0x70000001 off    0x0001c314 vaddr 0x00014314 paddr 0x00014314 align 2**2
         filesz 0x000001b8 memsz 0x000001b8 flags r--
    LOAD off    0x00008000 vaddr 0x00000000 paddr 0x00000000 align 2**15
         filesz 0x000145fc memsz 0x000145fc flags r-x
    LOAD off    0x00020400 vaddr 0x1fff8400 paddr 0x000145fc align 2**15
         filesz 0x0000093c memsz 0x0000093c flags rw-
    LOAD off    0x00020d40 vaddr 0x1fff8d40 paddr 0x00014f40 align 2**15
         filesz 0x00000000 memsz 0x00000f54 flags rw-
    LOAD off    0x00028000 vaddr 0x1fff8000 paddr 0x1fff8000 align 2**15
         filesz 0x00000000 memsz 0x00000400 flags rw-
private flags = 5000000: [Version5 EABI]

Sections:
Idx Name          Size      VMA       LMA       File off  Algn
  0 .text         00014310  00000000  00000000  00008000  2**3
                  CONTENTS, ALLOC, LOAD, READONLY, CODE
  1 .fini         00000004  00014310  00014310  0001c310  2**2
                  CONTENTS, ALLOC, LOAD, READONLY, CODE
  2 .ARM.exidx    000001b8  00014314  00014314  0001c314  2**2
                  CONTENTS, ALLOC, LOAD, READONLY, DATA
  3 .ARM.extab    00000130  000144cc  000144cc  0001c4cc  2**2
                  CONTENTS, ALLOC, LOAD, READONLY, DATA
  4 .usbdescriptortable 000000a0  1fff8000  1fff8000  00028000  2**2
                  ALLOC
  5 .usbbuffers   00000360  1fff80a0  1fff80a0  00028000  2**0
                  ALLOC
  6 .data         0000093c  1fff8400  000145fc  00020400  2**3
                  CONTENTS, ALLOC, LOAD, DATA
  7 .bss          00000f54  1fff8d40  00014f40  00020d40  2**3
                  ALLOC
  8 .ARM.attributes 0000002a  00000000  00000000  00020d3c  2**0
                  CONTENTS, READONLY
  9 .comment      00000070  00000000  00000000  00020d66  2**0
                  CONTENTS, READONLY
 10 .debug_info   00027f1a  00000000  00000000  00020dd6  2**0
                  CONTENTS, READONLY, DEBUGGING
 11 .debug_abbrev 00006436  00000000  00000000  00048cf0  2**0
                  CONTENTS, READONLY, DEBUGGING
 12 .debug_loc    000092b4  00000000  00000000  0004f126  2**0
                  CONTENTS, READONLY, DEBUGGING
 13 .debug_aranges 00000dc8  00000000  00000000  000583da  2**0
                  CONTENTS, READONLY, DEBUGGING
 14 .debug_ranges 00001be0  00000000  00000000  000591a2  2**0
                  CONTENTS, READONLY, DEBUGGING
 15 .debug_line   0000650c  00000000  00000000  0005ad82  2**0
                  CONTENTS, READONLY, DEBUGGING
 16 .debug_str    0000df15  00000000  00000000  0006128e  2**0
                  CONTENTS, READONLY, DEBUGGING
 17 .debug_frame  000041dc  00000000  00000000  0006f1a4  2**2
                  CONTENTS, READONLY, DEBUGGING
SYMBOL TABLE:
00000000 l    d  .text	00000000 .text
00014310 l    d  .fini	00000000 .fini
00014314 l    d  .ARM.exidx	00000000 .ARM.exidx
000144cc l    d  .ARM.extab	00000000 .ARM.extab
1fff8000 l    d  .usbdescriptortable	00000000 .usbdescriptortable
1fff80a0 l    d  .usbbuffers	00000000 .usbbuffers
1fff8400 l    d  .data	00000000 .data
1fff8d40 l    d  .bss	00000000 .bss
00000000 l    d  .ARM.attributes	00000000 .ARM.attributes
00000000 l    d  .comment	00000000 .comment
00000000 l    d  .debug_info	00000000 .debug_info
00000000 l    d  .debug_abbrev	00000000 .debug_abbrev
00000000 l    d  .debug_loc	00000000 .debug_loc
00000000 l    d  .debug_aranges	00000000 .debug_aranges
00000000 l    d  .debug_ranges	00000000 .debug_ranges
00000000 l    d  .debug_line	00000000 .debug_line
00000000 l    d  .debug_str	00000000 .debug_str
00000000 l    d  .debug_frame	00000000 .debug_frame
00000000 l    df *ABS*	00000000 mk20dx128.c
00002604 l     F .text	0000000c startup_default_early_hook
00002610 l     F .text	00000002 startup_default_late_hook
00000000 l    df *ABS*	00000000 crtstuff.c
00000410 l     F .text	00000000 __do_global_dtors_aux
1fff8d40 l       .bss	00000000 completed.7863
00000434 l     F .text	00000000 frame_dummy
1fff8d44 l       .bss	00000000 object.7868
000142ec l     O .text	00000000 __frame_dummy_init_array_entry
00000000 l    df *ABS*	00000000 FastLED.cpp
000004f0 l     F .text	0000000c _GLOBAL__sub_I_LEDS
00000000 l    df *ABS*	00000000 hsv2rgb.cpp
000004fc l     F .text	0000003a _ZL15nscale8x3_videoRhS_S_h
00000000 l    df *ABS*	00000000 Perlins.cpp
000128c4 l     O .text	00000100 _ZL1p
00000000 l    df *ABS*	00000000 main.cpp
00001090 l     F .text	0000001c _ZN15P9813ControllerILh10ELh11EL6EOrder10ELh4EE13writeBoundaryEv.isra.26
000011b0 l     F .text	0000001c _ZN15P9813ControllerILh8ELh9EL6EOrder10ELh4EE13writeBoundaryEv.isra.29
000012c8 l     F .text	0000001c _ZN15P9813ControllerILh6ELh7EL6EOrder10ELh4EE13writeBoundaryEv.isra.31
00001968 l     F .text	0000001c _GLOBAL__sub_I_modeChange
1fff90b8 l     O .bss	00000001 _ZZ4mainE6reboot
00000000 l    df *ABS*	00000000 BaseMode.cpp
00000000 l    df *ABS*	00000000 ColorMode.cpp
00000000 l    df *ABS*	00000000 MeltMode.cpp
00001ad8 l     F .text	0000001c _ZL8random16v
00000000 l    df *ABS*	00000000 analog.c
00001f0c l     F .text	000000e4 wait_for_cal
00012ae8 l     O .text	00000017 channel2sc1a
1fff90c1 l     O .bss	00000001 analog_right_shift
1fff90c2 l     O .bss	00000001 calibrating
1fff8414 l     O .data	00000001 analog_config_bits
1fff90c3 l     O .bss	00000001 analogReadBusyADC1
1fff90c4 l     O .bss	00000001 analogReadBusyADC0
1fff90c5 l     O .bss	00000001 analog_reference_internal
1fff8415 l     O .data	00000001 analog_num_average
00000000 l    df *ABS*	00000000 AudioStream.cpp
00000000 l    df *ABS*	00000000 HardwareSerial1.cpp
000022c0 l     F .text	0000001c _GLOBAL__sub_I_Serial1
00000000 l    df *ABS*	00000000 HardwareSerial2.cpp
00002398 l     F .text	0000001c _GLOBAL__sub_I_Serial2
00000000 l    df *ABS*	00000000 HardwareSerial3.cpp
00002470 l     F .text	0000001c _GLOBAL__sub_I_Serial3
00000000 l    df *ABS*	00000000 IntervalTimer.cpp
00000000 l    df *ABS*	00000000 IPAddress.cpp
0000259c l     F .text	0000001c _GLOBAL__sub_I__ZN9IPAddressC2Ev
1fff9118 l     O .bss	00000008 _ZL11INADDR_NONE
00000000 l    df *ABS*	00000000 nonstd.c
00000000 l    df *ABS*	00000000 pins_teensy.c
1fff9120 l     O .bss	00000088 intFunc
00000000 l    df *ABS*	00000000 Print.cpp
00000000 l    df *ABS*	00000000 serial1.c
1fff91ac l     O .bss	00000001 transmitting
1fff91ad l     O .bss	00000001 rx_buffer_tail
1fff91ae l     O .bss	00000040 tx_buffer
1fff91ee l     O .bss	00000040 rx_buffer
1fff922e l     O .bss	00000001 rx_buffer_head
1fff922f l     O .bss	00000001 tx_buffer_tail
1fff9230 l     O .bss	00000004 transmit_pin
1fff9234 l     O .bss	00000001 tx_buffer_head
00000000 l    df *ABS*	00000000 serial2.c
1fff9235 l     O .bss	00000001 transmitting
1fff9236 l     O .bss	00000001 rx_buffer_tail
1fff9237 l     O .bss	00000028 tx_buffer
1fff925f l     O .bss	00000040 rx_buffer
1fff929f l     O .bss	00000001 rx_buffer_head
1fff92a0 l     O .bss	00000001 tx_buffer_tail
1fff92a1 l     O .bss	00000001 tx_buffer_head
00000000 l    df *ABS*	00000000 serial3.c
1fff92a2 l     O .bss	00000001 transmitting
1fff92a3 l     O .bss	00000001 rx_buffer_tail
1fff92a4 l     O .bss	00000028 tx_buffer
1fff92cc l     O .bss	00000040 rx_buffer
1fff930c l     O .bss	00000001 rx_buffer_head
1fff930d l     O .bss	00000001 tx_buffer_tail
1fff930e l     O .bss	00000001 tx_buffer_head
00000000 l    df *ABS*	00000000 Tone.cpp
00003728 l     F .text	0000001c _GLOBAL__sub_I_tone_timer
00000000 l    df *ABS*	00000000 usb_desc.c
1fff841c l     O .data	00000012 device_descriptor
1fff8446 l     O .data	00000043 config_descriptor
00000000 l    df *ABS*	00000000 usb_dev.c
000037b4 l     F .text	00000040 endpoint0_transmit
1fff9324 l     O .bss	00000004 ep0_tx_ptr
1fff9328 l     O .bss	00000010 rx_last
1fff9338 l     O .bss	00000004 tx_state
1fff933c l     O .bss	00000040 ep0_rx0_buf
1fff937c l     O .bss	00000010 rx_first
1fff938c l     O .bss	00000001 ep0_tx_bdt_bank
1fff9390 l     O .bss	00000040 ep0_rx1_buf
1fff93d0 l     O .bss	00000010 tx_first
1fff8000 l     O .usbdescriptortable	000000a0 table
1fff93e0 l     O .bss	00000010 tx_last
1fff93f0 l     O .bss	00000008 setup
1fff93f8 l     O .bss	00000002 ep0_tx_len
1fff93fb l     O .bss	00000008 reply_buffer
1fff9404 l     O .bss	00000001 ep0_tx_data_toggle
00000000 l    df *ABS*	00000000 usb_inst.cpp
00003ff4 l     F .text	0000001c _GLOBAL__sub_I_Serial
00000000 l    df *ABS*	00000000 usb_mem.c
1fff84bc l     O .data	00000004 usb_buffer_available
00000000 l    df *ABS*	00000000 usb_serial.c
1fff9419 l     O .bss	00000001 tx_noautoflush
1fff941c l     O .bss	00000004 tx_packet
1fff9420 l     O .bss	00000001 transmit_previous_timeout
1fff9424 l     O .bss	00000004 rx_packet
00000000 l    df *ABS*	00000000 WMath.cpp
1fff942c l     O .bss	00000004 _ZL4seed
00000000 l    df *ABS*	00000000 yield.c
00000000 l    df *ABS*	00000000 atexit_arm.cc
00000000 l    df *ABS*	00000000 del_op.cc
00000000 l    df *ABS*	00000000 new_op.cc
00000000 l    df *ABS*	00000000 bad_alloc.cc
00000000 l    df *ABS*	00000000 eh_alloc.cc
1fff9430 l     O .bss	00000004 _ZL14emergency_used
1fff9438 l     O .bss	00000800 _ZL16emergency_buffer
00000000 l    df *ABS*	00000000 eh_arm.cc
00000000 l    df *ABS*	00000000 eh_call.cc
000045e0 l     F .text	0000003a _ZN10__cxxabiv1L24__is_gxx_exception_classEPc
00000000 l    df *ABS*	00000000 eh_catch.cc
00000000 l    df *ABS*	00000000 eh_exception.cc
00000000 l    df *ABS*	00000000 eh_globals.cc
1fff9c38 l     O .bss	0000000c _ZL10eh_globals
00000000 l    df *ABS*	00000000 eh_personality.cc
0000488c l     F .text	00000032 _ZL12read_sleb128PKhPl
000048c0 l     F .text	000000b0 _ZL28read_encoded_value_with_basehjPKhPj
00004970 l     F .text	0000004a _ZL21base_of_encoded_valuehP15_Unwind_Context
000049bc l     F .text	00000096 _ZL17parse_lsda_headerP15_Unwind_ContextPKhP16lsda_header_info
00000000 l    df *ABS*	00000000 eh_terminate.cc
00000000 l    df *ABS*	00000000 eh_throw.cc
00004eac l     F .text	00000044 _ZL23__gxx_exception_cleanup19_Unwind_Reason_CodeP21_Unwind_Control_Block
00000000 l    df *ABS*	00000000 si_class_type_info.cc
00000000 l    df *ABS*	00000000 tinfo.cc
00000000 l    df *ABS*	00000000 class_type_info.cc
00000000 l    df *ABS*	00000000 vterminate.cc
1fff9c48 l     O .bss	00000001 _ZZN9__gnu_cxx27__verbose_terminate_handlerEvE11terminating
00000000 l    df *ABS*	00000000 cp-demangle.c
00005370 l     F .text	00000096 d_make_comp
00005408 l     F .text	00000032 d_make_name
0000543c l     F .text	000000b2 d_cv_qualifiers
000054f0 l     F .text	00000038 d_ref_qualifier
00005528 l     F .text	00000086 d_clone_suffix
000055b0 l     F .text	00000154 d_substitution
00005704 l     F .text	00000046 d_append_char
0000574c l     F .text	0000004c d_number.isra.0
00005798 l     F .text	00000038 d_number_component
000057d0 l     F .text	00000030 d_compact_number
00005800 l     F .text	00000044 d_template_param
00005844 l     F .text	0000001e d_discriminator
00005864 l     F .text	00000084 d_source_name
000058e8 l     F .text	00000054 d_call_offset
0000593c l     F .text	00000044 d_lookup_template_argument.isra.6
00005980 l     F .text	00000086 d_find_pack
00005a08 l     F .text	0000007c d_growable_string_callback_adapter
00005a84 l     F .text	000000cc d_expr_primary
00006698 l     F .text	0000065e d_encoding
00005ecc l     F .text	00000708 d_type
00005b50 l     F .text	000000bc d_template_args
00007070 l     F .text	000003bc d_expression
00005c0c l     F .text	000002c0 d_name
00006df4 l     F .text	0000027c d_unqualified_name
0000665c l     F .text	0000003c d_bare_function_type
000065d4 l     F .text	00000088 d_parmlist
00006cf8 l     F .text	000000fc d_operator_name
0000742c l     F .text	00000064 d_exprlist
00007490 l     F .text	00000068 d_append_string
000074f8 l     F .text	0000252c d_print_comp.part.10
00009a24 l     F .text	00000016 d_print_comp
00009a3c l     F .text	00000546 d_print_mod
0000a6e8 l     F .text	00000074 d_print_expr_op
0000a75c l     F .text	000000aa d_print_subexpr
0000a1e8 l     F .text	000001a0 d_print_array_type.isra.9
0000a388 l     F .text	000001d8 d_print_function_type.isra.11
0000a560 l     F .text	00000186 d_print_cast.isra.12
00009f84 l     F .text	00000264 d_print_mod_list
0000a808 l     F .text	0000020c d_demangle_callback.constprop.16
00013054 l     O .text	000000c4 standard_subs
00013118 l     O .text	00000294 cplus_demangle_builtin_types
000133ac l     O .text	000003e0 cplus_demangle_operators
00000000 l    df *ABS*	00000000 eh_type.cc
00000000 l    df *ABS*	00000000 s_cos.c
00000000 l    df *ABS*	00000000 s_floor.c
00000000 l    df *ABS*	00000000 s_sin.c
00000000 l    df *ABS*	00000000 e_rem_pio2.c
00013f80 l     O .text	00000080 npio2_hw
00014000 l     O .text	00000108 two_over_pi
00000000 l    df *ABS*	00000000 k_cos.c
00000000 l    df *ABS*	00000000 k_rem_pio2.c
00014108 l     O .text	00000010 init_jk
00014118 l     O .text	00000040 PIo2
00000000 l    df *ABS*	00000000 k_sin.c
00000000 l    df *ABS*	00000000 s_fabs.c
00000000 l    df *ABS*	00000000 s_fpclassify.c
00000000 l    df *ABS*	00000000 s_scalbn.c
00000000 l    df *ABS*	00000000 s_copysign.c
00000000 l    df *ABS*	00000000 _arm_addsubdf3.o
00000000 l    df *ABS*	00000000 _arm_muldivdf3.o
00000000 l    df *ABS*	00000000 _arm_cmpdf2.o
00000000 l    df *ABS*	00000000 _arm_fixdfsi.o
00000000 l    df *ABS*	00000000 _arm_fixunsdfsi.o
00000000 l    df *ABS*	00000000 unwind-arm.c
0000c7a8 l     F .text	00000012 selfrel_offset31
0000c7bc l     F .text	00000072 search_EIT_table
0000c830 l     F .text	00000028 __gnu_unwind_get_pr_addr
0000c858 l     F .text	000000ac get_eit_entry
0000c904 l     F .text	00000058 restore_non_core_regs
0000c95c l     F .text	0000000c _Unwind_decode_typeinfo_ptr.isra.0
0000c968 l     F .text	00000004 __gnu_unwind_24bit.isra.1
0000c96c l     F .text	00000002 _Unwind_DebugHook
0000c970 l     F .text	0000003e unwind_phase2
0000c9b0 l     F .text	000000da unwind_phase2_forced
0000cba0 l     F .text	0000001a _Unwind_GetGR
0000cbf0 l     F .text	0000001c _Unwind_SetGR
0000cc7c l     F .text	000002e4 __gnu_unwind_pr_common
00000000 l    df *ABS*	00000000 libunwind.o
00000000 l    df *ABS*	00000000 pr-support.c
0000d370 l     F .text	00000032 next_unwind_byte
0000d3a4 l     F .text	0000001a _Unwind_GetGR.constprop.0
0000d3c0 l     F .text	00000004 unwind_UCB_from_context
00000000 l    df *ABS*	00000000 abort.c
00000000 l    df *ABS*	00000000 cxa_atexit.c
00000000 l    df *ABS*	00000000 fputc.c
00000000 l    df *ABS*	00000000 fputs.c
00000000 l    df *ABS*	00000000 fvwrite.c
00000000 l    df *ABS*	00000000 fwrite.c
00000000 l    df *ABS*	00000000 init.c
00000000 l    df *ABS*	00000000 malloc.c
00000000 l    df *ABS*	00000000 mallocr.c
00000000 l    df *ABS*	00000000 memchr-stub.c
00000000 l    df *ABS*	00000000 memcmp.c
00000000 l    df *ABS*	00000000 lib_a-memcpy.o
00000000 l    df *ABS*	00000000 memmove.c
00000000 l    df *ABS*	00000000 memset.c
00000000 l    df *ABS*	00000000 mlock.c
00000000 l    df *ABS*	00000000 putc.c
00000000 l    df *ABS*	00000000 realloc.c
00000000 l    df *ABS*	00000000 mallocr.c
00000000 l    df *ABS*	00000000 sbrkr.c
00000000 l    df *ABS*	00000000 signal.c
00000000 l    df *ABS*	00000000 signalr.c
00000000 l    df *ABS*	00000000 sprintf.c
00000000 l    df *ABS*	00000000 lib_a-strcmp.o
00000000 l    df *ABS*	00000000 strncmp.c
00000000 l    df *ABS*	00000000 vfprintf.c
00014160 l     O .text	00000010 zeroes.6763
000141b4 l     O .text	00000010 blanks.6762
00000000 l    df *ABS*	00000000 vdprintf.c
00000000 l    df *ABS*	00000000 wbuf.c
00000000 l    df *ABS*	00000000 writer.c
00000000 l    df *ABS*	00000000 wsetup.c
00000000 l    df *ABS*	00000000 __atexit.c
00000000 l    df *ABS*	00000000 __call_atexit.c
000103c0 l     F .text	00000014 register_fini
00000000 l    df *ABS*	00000000 atexit.c
00000000 l    df *ABS*	00000000 dtoa.c
000103e0 l     F .text	00000130 quorem
00000000 l    df *ABS*	00000000 fflush.c
00000000 l    df *ABS*	00000000 findfp.c
00000000 l    df *ABS*	00000000 fini.c
00000000 l    df *ABS*	00000000 mallocr.c
00000000 l    df *ABS*	00000000 fwalk.c
00000000 l    df *ABS*	00000000 locale.c
1fff8d04 l     O .data	00000038 lconv
00000000 l    df *ABS*	00000000 makebuf.c
00000000 l    df *ABS*	00000000 mprec.c
000142d0 l     O .text	0000000c p05.5269
00000000 l    df *ABS*	00000000 stdio.c
00000000 l    df *ABS*	00000000 vfprintf.c
00000000 l    df *ABS*	00000000 vasnprintf.c
00000000 l    df *ABS*	00000000 mallocr.c
00000000 l    df *ABS*	00000000 closer.c
00000000 l    df *ABS*	00000000 fclose.c
00000000 l    df *ABS*	00000000 fstatr.c
00000000 l    df *ABS*	00000000 isattyr.c
00000000 l    df *ABS*	00000000 lseekr.c
00000000 l    df *ABS*	00000000 readr.c
00000000 l    df *ABS*	00000000 _aeabi_uldivmod.o
00000000 l    df *ABS*	00000000 bpabi.c
00000000 l    df *ABS*	00000000 _dvmd_tls.o
00000000 l    df *ABS*	00000000 libgcc2.c
00000000 l    df *ABS*	00000000 libgcc2.c
00000000 l    df *ABS*	00000000 impure.c
1fff84c8 l     O .data	00000428 impure_data
00000000 l    df *ABS*	00000000 /Applications/Arduino.app/Contents/Java/hardware/tools/arm/bin/../lib/gcc/arm-none-eabi/4.8.4/armv7e-m/crti.o
00000000 l    df *ABS*	00000000 /Applications/Arduino.app/Contents/Java/hardware/tools/arm/bin/../lib/gcc/arm-none-eabi/4.8.4/armv7e-m/crtn.o
00000000 l    df *ABS*	00000000 lib8tion.cpp
00000000 l    df *ABS*	00000000 leds.cpp
00000000 l    df *ABS*	00000000 eh_unex_handler.cc
00000000 l    df *ABS*	00000000 eh_term_handler.cc
00000000 l    df *ABS*	00000000 new_handler.cc
00000000 l    df *ABS*	00000000 reent.c
00000000 l    df *ABS*	00000000 
00000000 l       *UND*	00000000 __bss_start__
00000000 l       *UND*	00000000 __bss_end__
00000000 l       *UND*	00000000 software_init_hook
00000000 l       *UND*	00000000 hardware_init_hook
00000000 l       *UND*	00000000 __stack
00004420 g     F .text	00000034 __cxa_free_exception
0000d328 g     F .text	00000022 .hidden ___Unwind_ForcedUnwind
0000ca90 g     F .text	0000005e .hidden __gnu_Unwind_RaiseException
000025fc  w    F .text	00000006 adc0_isr
00001b1c g     F .text	00000012 _ZN8MeltModeD0Ev
0000511c g     F .text	00000004 _ZNKSt9type_info15__is_function_pEv
00004114 g     F .text	0000001c usb_serial_available
00004e9c g     F .text	00000010 _ZSt10unexpectedv
000122a0 g     F .text	00000024 _isatty_r
0000c6dc g     F .text	00000012 .hidden __aeabi_dcmple
000022a6  w    F .text	00000018 _ZN14HardwareSerial5writeEPKc
00012370 g     F .text	00000030 .hidden __gnu_uldivmod_helper
00002698 g     F .text	00000004 _getpid
0000371c  w    F .text	0000000c _ZN13IntervalTimerD2Ev
00012a08  w    O .text	00000018 _ZTV15P9813ControllerILh8ELh9EL6EOrder10ELh4EE
00001a9c g     F .text	0000003c _ZN9ColorModeC1EPKc4CHSVl
0000c618 g     F .text	0000007a .hidden __cmpdf2
0000bcf0 g     F .text	00000006 fabs
000122c4 g     F .text	00000028 _lseek_r
00004320  w    F .text	00000002 yield
00012a20  w    O .text	00000018 _ZTV15P9813ControllerILh10ELh11EL6EOrder10ELh4EE
0000176e  w    F .text	000000fc _ZN15P9813ControllerILh8ELh9EL6EOrder10ELh4EE4showEPK4CRGBiS2_
0000aa14 g     F .text	000000c4 __cxa_demangle
00002430  w    F .text	0000000c _ZN15HardwareSerial35writeEh
0000c618 g     F .text	0000007a .hidden __eqdf2
000123a4 g     F .text	00000296 .hidden __divdi3
00004f80 g     F .text	00000070 __cxa_rethrow
1fff842e g     O .data	00000002 usb_string_manufacturer_name_default
00002ef8 g     F .text	00000020 serial_available
00002264  w    F .text	00000006 _ZN14HardwareSerial17transmitterEnableEh
0000c188 g     F .text	0000005a .hidden __floatdidf
000025fc  w    F .text	00000006 hard_fault_isr
000023e4  w    F .text	00000014 _ZN15HardwareSerial35beginEm
000025fc  w    F .text	00000006 dma_ch6_isr
0000e8e0 g     F .text	00000028 _kill_r
00001984 g     F .text	0000000c _ZN8BaseModeD1Ev
00004398 g     F .text	00000014 _ZNSt9bad_allocD2Ev
00004454 g     F .text	00000000 __cxa_end_cleanup
000010ba  w    F .text	0000000e _ZN20AVRSoftwareSPIOutputILh8ELh9ELh4EE7releaseEv
00003524 g     F .text	00000090 serial3_putchar
00002b44 g     F .text	00000020 _ZN5Print7printlnEv
000032ac g     F .text	00000020 serial2_available
00011fdc g     F .text	00000020 __sseek
000114d4 g     F .text	000000f4 __sinit
000025fc  w    F .text	00000006 uart0_lon_isr
00003850 g     F .text	00000078 usb_rx_memory
00001afc g     F .text	00000020 _ZN8MeltModeD2Ev
00010184 g     F .text	000000a8 __swbuf_r
00004ff0 g     F .text	00000014 _ZN10__cxxabiv120__si_class_type_infoD2Ev
00012efc g     O .text	00000025 _ZTSN10__cxxabiv120__si_class_type_infoE
000025fc  w    F .text	00000006 dma_ch8_isr
0000e41c g     F .text	00000002 __malloc_unlock
000011da  w    F .text	0000000e _ZN20AVRSoftwareSPIOutputILh6ELh7ELh4EE7releaseEv
000023d8  w    F .text	0000000c _ZN15HardwareSerial35writeEi
00003198 g     F .text	00000058 serial2_end
00001ff0 g     F .text	000000b8 analog_init
000038c8 g     F .text	00000080 usb_tx
00010120 g     F .text	0000004a _vdprintf_r
00001990 g     F .text	00000014 _ZN8BaseModeD0Ev
1fff9056  w    O .bss	00000001 _ZZN15PixelControllerIL6EOrder10EE21init_binary_ditheringEvE1R
0000242c  w    F .text	00000004 _ZN15HardwareSerial35clearEv
0000e2c4 g     F .text	000000c0 memmove
0000d1e4 g     F .text	00000000 .hidden __gnu_Unwind_Save_VFP
0000482c g     F .text	0000000c _ZNSt9exceptionD2Ev
0000d304 g     F .text	00000022 .hidden _Unwind_Resume_or_Rethrow
0000226e  w    F .text	00000004 _ZN14HardwareSerial4peekEv
000026e8 g     F .text	00000028 init_pin_interrupts
0001196c g     F .text	0000004c _Balloc
1fff90c0 g     O .bss	00000001 modeChange
000144cc g       .ARM.exidx	00000000 __exidx_end
000025fc  w    F .text	00000006 dma_error_isr
000129f0  w    O .text	00000018 _ZTV15P9813ControllerILh6ELh7EL6EOrder10ELh4EE
000025fc  w    F .text	00000006 i2c0_isr
0000cf60 g     F .text	00000006 .hidden __aeabi_unwind_cpp_pr0
0000c608 g     F .text	0000008a .hidden __gtdf2
00012e68 g     O .text	00000014 _ZTVSt13bad_exception
00002458  w    F .text	00000018 _ZN15HardwareSerial35writeEPKc
000028f8 g     F .text	00000084 portd_isr
00002f7c g     F .text	00000040 serial_clear
00002340  w    F .text	00000004 _ZN15HardwareSerial23endEv
0000d67c g     F .text	0000000a .hidden _Unwind_GetRegionStart
1fff90d0 g     O .bss	00000010 Serial1
0000d304 g     F .text	00000022 .hidden ___Unwind_Resume_or_Rethrow
00003fea  w    F .text	00000008 _ZN16usb_serial_class5writeEPKhj
00012278 g     F .text	00000028 _fstat_r
00012c00 g     O .text	00000110 digital_pin_to_info_PGM
1fff9c90 g     O .bss	00000004 errno
0000ab88 g     F .text	00000120 floor
000145fc g       .ARM.extab	00000000 _etext
00001208  w    F .text	000000c0 _ZN20AVRSoftwareSPIOutputILh6ELh7ELh4EE9writeByteEh
1fff8d40 g       .bss	00000000 _sbss
0000d34c g     F .text	00000022 .hidden _Unwind_Backtrace
0000c6a4 g     F .text	00000010 .hidden __aeabi_cdcmple
000021fc  w    F .text	0000000c _ZN14HardwareSerial5writeEm
0000226a  w    F .text	00000004 _ZN14HardwareSerial9availableEv
00002a0c g     F .text	0000001c digitalRead
0000450c g     F .text	00000064 __cxa_begin_cleanup
0000297c g     F .text	00000030 porte_isr
000027b4 g     F .text	00000088 portb_isr
00001af4  w    F .text	00000008 _ZN8MeltMode4nameEv
0000d1c4 g     F .text	00000018 .hidden __restore_core_regs
0000d204 g     F .text	00000000 .hidden __gnu_Unwind_Save_VFP_D_16_to_31
000025fc  w    F .text	00000006 spi1_isr
0000463c g     F .text	000000d8 __cxa_call_unexpected
000025fc  w    F .text	00000006 uart3_status_isr
000025fc  w    F .text	00000006 mcm_isr
00002300  w    F .text	0000000c _ZN15HardwareSerial25writeEi
00001a9c g     F .text	0000003c _ZN9ColorModeC2EPKc4CHSVl
0000255a g     F .text	00000042 _ZNK9IPAddress7printToER5Print
0000227e  w    F .text	0000000c _ZN14HardwareSerial5writeEh
0000ad40 g     F .text	0000043c __ieee754_rem_pio2
00001b30 g     F .text	00000388 _ZN8MeltMode5frameEv
00003344 g     F .text	000000a4 uart1_status_isr
0000ca8c g     F .text	00000004 .hidden _Unwind_GetCFA
0000e190 g     F .text	00000134 memcpy
00003330 g     F .text	00000014 serial2_clear
0000c694 g     F .text	00000020 .hidden __aeabi_cdrcmple
000004b8 g     F .text	00000038 _ZN8CFastLED4showEh
0000cbbc g     F .text	00000034 .hidden _Unwind_VRS_Set
000114c8 g     F .text	0000000c _cleanup_r
000051a4 g     F .text	0000000c _ZNK10__cxxabiv117__class_type_info20__do_find_public_srcEiPKvPKS0_S2_
0000ec28 g     F .text	000014f8 _svfprintf_r
0000c118 g     F .text	00000022 .hidden __floatsidf
1fff91a8 g     O .bss	00000004 systick_millis_count
0000c610 g     F .text	00000082 .hidden __ltdf2
000025fc  w    F .text	00000006 bus_fault_isr
00000b70  w    F .text	00000040 _ZN14CLEDControllerC2Ev
000025fc  w    F .text	00000006 watchdog_isr
000051b0 g     F .text	00000014 _ZN10__cxxabiv117__class_type_infoD1Ev
00012314 g     F .text	00000000 .hidden __aeabi_uldivmod
00002648 g     F .text	0000003c nvic_execution_priority
000025fc  w    F .text	00000006 i2c1_isr
1fff9310 g     O .bss	00000014 tone_timer
1fff9403 g     O .bss	00000001 usb_configuration
000025fc  w    F .text	00000006 dma_ch11_isr
00001eb8 g     F .text	00000054 _ZN8MeltModeC1Ev
00002364  w    F .text	0000000c _ZN15HardwareSerial29write9bitEm
00000000  w      *UND*	00000000 __fini_array_end
000022f4  w    F .text	0000000c _ZN15HardwareSerial25writeEj
0000bcf8 g     F .text	00000050 __fpclassifyd
000025fc  w    F .text	00000006 i2c2_isr
1fff842e  w    O .data	00000002 usb_string_manufacturer_name
1fff9c80 g     O .bss	00000008 usb_rx_byte_count_data
000024a4 g     F .text	00000018 pit1_isr
0000db40 g     F .text	00000010 malloc
00000fa2  w    F .text	0000000e _ZN20AVRSoftwareSPIOutputILh10ELh11ELh4EE7releaseEv
000025fc  w    F .text	00000006 dma_ch4_isr
00002188 g     F .text	00000074 software_isr
0000e878 g     F .text	00000056 _raise_r
0000261c  w    F .text	0000000a _fstat
000025fc  w    F .text	00000006 dma_ch7_isr
000141e0 g     O .text	000000c8 __mprec_tens
00003f34 g     F .text	000000a0 usb_init
1fff9090  w    O .bss	0000001c _ZZN8CFastLED7addLedsIL12ESPIChipsets4ELh6ELh7EL6EOrder10ELh4EEER14CLEDControllerP4CRGBiiE1c_3
0000b180 g     F .text	00000250 __kernel_cos
000034cc g     F .text	00000058 serial3_end
0000c768 g     F .text	00000040 .hidden __fixunsdfsi
000025fc  w    F .text	00000006 lptmr_isr
1fff9c54 g     O .bss	00000004 __malloc_top_pad
000029ac g     F .text	00000020 rtc_set
1fff9104 g     O .bss	00000001 _ZN13IntervalTimer11PIT_enabledE
0000e908 g     F .text	00000004 _getpid_r
1fff90b0  w    O .bss	00000004 _ZGVZN8CFastLED7addLedsIL12ESPIChipsets4ELh8ELh9EL6EOrder10ELh4EEER14CLEDControllerP4CRGBiiE1c_3
0000cc0c g     F .text	00000070 .hidden __gnu_Unwind_Backtrace
1fff8404 g     O .data	00000002 rand16seed
1fff8400 g     O .data	00000000 .hidden __dso_handle
0000c0f8 g     F .text	0000001e .hidden __aeabi_ui2d
00011884 g     F .text	00000008 _localeconv_r
0000313c g     F .text	0000005c serial2_format
00004570 g     F .text	00000070 __gnu_end_cleanup
00011b00 g     F .text	00000012 __i2b
0000d754 g     F .text	00000318 __sfvwrite_r
000051f8 g     F .text	00000024 _ZNK10__cxxabiv117__class_type_info10__do_catchEPKSt9type_infoPPvj
00012b50  w    O .text	0000004c _ZTV15HardwareSerial2
00003600 g     F .text	00000034 serial3_getchar
00002208  w    F .text	0000000c _ZN14HardwareSerial5writeEl
1fff8400 g       .data	00000000 _sdata
0000be74 g     F .text	00000000 .hidden __aeabi_drsub
0000e854 g     F .text	00000024 _sbrk_r
00002ee4 g     F .text	00000014 serial_flush
000001bc g     F .text	00000188 ResetHandler
00004090 g     F .text	0000004c usb_serial_getchar
0000d1f4 g     F .text	00000000 .hidden __gnu_Unwind_Save_VFP_D
00012f40 g     O .text	00000020 _ZTVSt9type_info
000025fc  w    F .text	00000006 ftm2_isr
000011cc  w    F .text	0000000e _ZN20AVRSoftwareSPIOutputILh6ELh7ELh4EE6selectEv
1fff9c88 g     O .bss	00000008 usb_cdc_line_coding
000029cc g     F .text	00000040 digitalWrite
000025fc  w    F .text	00000006 uart5_status_isr
1fff9058  w    O .bss	0000001c _ZZN8CFastLED7addLedsIL12ESPIChipsets4ELh10ELh11EL6EOrder10ELh4EEER14CLEDControllerP4CRGBiiE1c_3
000122ec g     F .text	00000028 _read_r
00004844 g     F .text	00000008 _ZNKSt9exception4whatEv
00012d12 g     O .text	00000004 usb_endpoint_config_table
000025fc  w    F .text	00000006 dma_ch9_isr
0000222c  w    F .text	00000014 _ZN14HardwareSerial5beginEm
00001eb8 g     F .text	00000054 _ZN8MeltModeC2Ev
000006a4 g     F .text	0000000c _ZN7PerlinsD1Ev
000024bc g     F .text	00000018 pit2_isr
000030b4 g     F .text	00000088 serial2_begin
0000c6c8 g     F .text	00000012 .hidden __aeabi_dcmplt
000035e0 g     F .text	00000020 serial3_available
0000cf78 g     F .text	0000024a .hidden _Unwind_VRS_Pop
000121e8 g     F .text	00000080 _fclose_r
00000f94  w    F .text	0000000e _ZN20AVRSoftwareSPIOutputILh10ELh11ELh4EE6selectEv
0000cf70  w    F .text	00000006 .hidden __aeabi_unwind_cpp_pr2
00012da8 g     O .text	0000000c _ZTISt9bad_alloc
1fff9c50 g     O .bss	00000004 __malloc_max_sbrked_mem
00000fd0  w    F .text	000000c0 _ZN20AVRSoftwareSPIOutputILh10ELh11ELh4EE9writeByteEh
00002354  w    F .text	00000004 _ZN15HardwareSerial25clearEv
000010e8  w    F .text	000000c8 _ZN20AVRSoftwareSPIOutputILh8ELh9ELh4EE9writeByteEh
0000d34c g     F .text	00000022 .hidden ___Unwind_Backtrace
00002a28 g     F .text	00000038 pinMode
0000404c g     F .text	00000044 usb_free
0000bb80 g     F .text	0000016c __kernel_sin
0000c13c g     F .text	0000003a .hidden __extendsfdf2
0000163a  w    F .text	00000038 _ZN15PixelControllerIL6EOrder10EEC1EPK4CRGBiRS2_h
0000c438 g     F .text	000001d0 .hidden __aeabi_ddiv
000128c0 g     O .text	00000004 FastLED
0000be80 g     F .text	00000276 .hidden __adddf3
000031f0 g     F .text	00000090 serial2_putchar
1fff8408 g     O .data	00000004 leds_three
00012ec0 g     O .text	0000002c _ZTVN10__cxxabiv120__si_class_type_infoE
00002344  w    F .text	00000004 _ZN15HardwareSerial29availableEv
000032cc g     F .text	00000034 serial2_getchar
1fff8d64 g     O .bss	00000004 _ZN14CLEDController7m_pTailE
00014314 g       .ARM.exidx	00000000 __exidx_start
0000c1e4 g     F .text	00000254 .hidden __aeabi_dmul
0000248c g     F .text	00000018 pit0_isr
00002448  w    F .text	00000010 _ZN15HardwareSerial35writeEPKhj
00001afc g     F .text	00000020 _ZN8MeltModeD1Ev
000019b4 g     F .text	00000014 _ZN9ColorModeD1Ev
00002626  w    F .text	00000004 _isatty
000051e0 g     F .text	00000018 _ZNK10__cxxabiv117__class_type_info11__do_upcastEPKS0_PKvRNS0_15__upcast_resultE
00004330 g     F .text	00000008 _ZdlPv
0001415c g     O .text	00000004 _global_impure_ptr
000023b4  w    F .text	0000000c _ZN15HardwareSerial35writeEm
0000e488 g     F .text	000003cc _realloc_r
0000daf0 g     F .text	00000050 __libc_init_array
000025fc  w    F .text	00000006 can0_wakeup_isr
0001263c g     F .text	00000282 .hidden __udivdi3
0000d2bc g     F .text	00000022 .hidden ___Unwind_RaiseException
00002380  w    F .text	00000018 _ZN15HardwareSerial25writeEPKc
000025fc  w    F .text	00000006 flash_cmd_isr
00002370  w    F .text	00000010 _ZN15HardwareSerial25writeEPKhj
000033e8 g     F .text	00000088 serial3_begin
000142a8 g     O .text	00000028 __mprec_bigtens
0000d6ac g     F .text	0000000e abort
0000d2e0 g     F .text	00000022 .hidden ___Unwind_Resume
0000c0f8 g     F .text	0000001e .hidden __floatunsidf
00003678 g     F .text	000000a4 uart2_status_isr
00002684 g     F .text	00000010 _sbrk
1fff9074  w    O .bss	0000001c _ZZN8CFastLED7addLedsIL12ESPIChipsets4ELh8ELh9EL6EOrder10ELh4EEER14CLEDControllerP4CRGBiiE1c_3
00011da8 g     F .text	00000046 __mcmp
00002710 g     F .text	00000054 attachInterrupt
1fff8418 g     O .data	00000004 __brkval
000047a0 g     F .text	0000008c __cxa_end_catch
1fff9428 g     O .bss	00000001 usb_cdc_line_rtsdtr
00004274 g     F .text	00000048 usb_serial_flush_callback
00004838 g     F .text	0000000c _ZNSt13bad_exceptionD2Ev
00002320  w    F .text	00000020 _ZN15HardwareSerial25beginEmm
0000137c  w    F .text	000000ea _ZN15P9813ControllerILh10ELh11EL6EOrder10ELh4EE9showColorERK4CRGBiS2_
000142dc g     F .text	00000000 _init
00012a80 g     O .text	00000018 _ZTV8BaseMode
000035b4 g     F .text	00000016 serial3_write
000025fc  w    F .text	00000006 svcall_isr
000006d0 g     F .text	0000005c _ZN7Perlins4fadeEd
000025fc  w    F .text	00000006 dma_ch15_isr
00004e84 g     F .text	00000010 _ZSt9terminatev
00002bfc g     F .text	0000009c serial_begin
0000d20c g     F .text	00000000 .hidden __gnu_Unwind_Restore_WMMXD
00002240  w    F .text	00000020 _ZN14HardwareSerial5beginEmm
000010ac  w    F .text	0000000e _ZN20AVRSoftwareSPIOutputILh8ELh9ELh4EE6selectEv
0000b3d0 g     F .text	000007ae __kernel_rem_pio2
000019c8 g     F .text	00000012 _ZN9ColorModeD0Ev
000025fc  w    F .text	00000006 uart1_error_isr
000115d0 g     F .text	00000030 __libc_fini_array
1fff9c94 g       .bss	00000000 _ebss
1fff90f0 g     O .bss	00000010 Serial3
00002418  w    F .text	00000004 _ZN15HardwareSerial33endEv
00012f9c g     O .text	00000022 _ZTSN10__cxxabiv117__class_type_infoE
00000a8c  w    F .text	0000002c _ZN15P9813ControllerILh10ELh11EL6EOrder10ELh4EE9clearLedsEi
00011a64 g     F .text	00000040 __hi0bits
1fff90bc g     O .bss	00000004 lastActionTime
00004a54 g     F .text	00000406 __gxx_personality_v0
00012df8 g     O .text	00000008 _ZTISt9exception
0000c718 g     F .text	0000004e .hidden __fixdfsi
000025fc g     F .text	00000006 unused_isr
000025fc  w    F .text	00000006 spi0_isr
000006c4 g     F .text	0000000c _ZN7PerlinsC1Ev
00002424  w    F .text	00000004 _ZN15HardwareSerial34readEv
000025fc  w    F .text	00000006 dma_ch3_isr
0000510c g     F .text	0000000c _ZNSt9type_infoD1Ev
1fff9c44 g     O .bss	00000004 __new_handler
0000e420 g     F .text	00000058 _putc_r
0000228a  w    F .text	0000000c _ZN14HardwareSerial9write9bitEm
00005124 g     F .text	00000014 _ZNSt9type_infoD0Ev
00000c22  w    F .text	00000020 _ZNSt6vectorIP8BaseModeSaIS1_EE12emplace_backIIS1_EEEvDpOT_
000025fc  w    F .text	00000006 flash_error_isr
0000227a  w    F .text	00000004 _ZN14HardwareSerial5clearEv
0000be80 g     F .text	00000276 .hidden __aeabi_dadd
0000c610 g     F .text	00000082 .hidden __ledf2
00002276  w    F .text	00000004 _ZN14HardwareSerial5flushEv
00002d84 g     F .text	0000009c serial_putchar
000025fc  w    F .text	00000006 uart5_error_isr
000025fc  w    F .text	00000006 rtc_seconds_isr
000025fc  w    F .text	00000006 pdb_isr
00011c50 g     F .text	0000009c __pow5mult
0000c178 g     F .text	0000006a .hidden __aeabi_ul2d
000025fc  w    F .text	00000006 usage_fault_isr
00005120 g     F .text	00000004 _ZNKSt9type_info11__do_upcastEPKN10__cxxabiv117__class_type_infoEPPv
0000d1dc g     F .text	00000000 .hidden __gnu_Unwind_Restore_VFP
000025fc  w    F .text	00000006 dac1_isr
000025fc  w    F .text	00000006 dma_ch14_isr
00000000  w      *UND*	00000000 __deregister_frame_info
00000b4c  w    F .text	00000024 _ZN5Print7printlnEPKc
1fff8d68 g     O .bss	000002ee leds
000025b8  w    F .text	00000010 systick_isr
000035cc g     F .text	00000014 serial3_flush
1fff90ac  w    O .bss	00000004 _ZGVZN8CFastLED7addLedsIL12ESPIChipsets4ELh10ELh11EL6EOrder10ELh4EEER14CLEDControllerP4CRGBiiE1c_3
000025fc  w    F .text	00000006 rtc_alarm_isr
0000d2e0 g     F .text	00000022 .hidden _Unwind_Resume
1fff90c8 g     O .bss	00000004 _ZN11AudioStream12first_updateE
000025fc  w    F .text	00000006 dma_ch2_isr
1fff9408 g     O .bss	00000010 Serial
0000cb5c g     F .text	0000000e .hidden _Unwind_DeleteException
0000cb58 g     F .text	00000002 .hidden _Unwind_Complete
000025fc  w    F .text	00000006 ftm1_isr
00012b00  w    O .text	0000004c _ZTV14HardwareSerial
00003fe4  w    F .text	00000006 _ZN16usb_serial_class5writeEh
00002604  w    F .text	0000000c startup_early_hook
000025fc  w    F .text	00000006 dma_ch13_isr
00002350  w    F .text	00000004 _ZN15HardwareSerial25flushEv
0000521c g     F .text	0000003e _ZNK10__cxxabiv117__class_type_info12__do_dyncastEiNS0_10__sub_kindEPKS0_PKvS3_S5_RNS0_16__dyncast_resultE
000025fc  w    F .text	00000006 uart2_error_isr
0000c704 g     F .text	00000012 .hidden __aeabi_dcmpgt
000040dc g     F .text	00000038 usb_serial_peekchar
0000516c g     F .text	00000036 _ZNK10__cxxabiv117__class_type_info11__do_upcastEPKS0_PPv
0000ab10 g     F .text	00000074 cos
000115c8 g     F .text	00000002 __sfp_lock_acquire
00012e00 g     O .text	00000012 _ZTSSt13bad_exception
0000e098 g     F .text	00000090 memchr
1fff84a4 g     O .data	00000002 usb_string_serial_number_default
000025c8 g     F .text	00000034 fault_isr
0001169c g     F .text	0000019c _free_r
0000072c g     F .text	00000052 _ZN7Perlins4gradEiddd
0000c6f0 g     F .text	00000012 .hidden __aeabi_dcmpge
000025fc  w    F .text	00000006 usb_charge_isr
00003fe0  w    F .text	00000004 _ZN16usb_serial_class5flushEv
000025fc  w    F .text	00000006 cmt_isr
0000be7c g     F .text	0000027a .hidden __aeabi_dsub
000019b4 g     F .text	00000014 _ZN9ColorModeD2Ev
1fff8d00 g     O .data	00000004 __malloc_sbrk_base
00003fd8  w    F .text	00000004 _ZN16usb_serial_class4readEv
000025fc  w    F .text	00000006 ftm3_isr
000025fc  w    F .text	00000006 tsi0_isr
00012f2c g     O .text	0000000d _ZTSSt9type_info
00002260  w    F .text	00000004 _ZN14HardwareSerial3endEv
0000aca8 g     F .text	00000094 sin
0000c178 g     F .text	0000006a .hidden __floatundidf
00004390 g     F .text	00000008 _ZNKSt9bad_alloc4whatEv
0000262a  w    F .text	00000006 _lseek
00002632  w    F .text	00000002 __cxa_pure_virtual
00011cec g     F .text	000000bc __lshift
00012d90 g     O .text	00000014 _ZTVSt9bad_alloc
000025fc  w    F .text	00000006 spi2_isr
00012004 g     F .text	00000100 __ssprint_r
0000d3c4 g     F .text	0000028c .hidden __gnu_unwind_execute
00012104 g     F .text	0000005e _vasnprintf_r
00012bf0 g     O .text	0000000c _ZTV9IPAddress
00001344  w    F .text	00000038 _ZN15PixelControllerIL6EOrder10EEC1ERK4CRGBiRS2_h
1fff938d g     O .bss	00000001 usb_reboot_timer
00010318 g     F .text	000000a8 __register_exitproc
00012dc4 g     O .text	0000000d _ZTSSt9bad_alloc
0000eb74 g     F .text	000000b4 strncmp
00005054 g     F .text	00000096 _ZNK10__cxxabiv120__si_class_type_info12__do_dyncastEiNS_17__class_type_info10__sub_kindEPKS1_PKvS4_S6_RNS1_16__dyncast_resultE
0000d1ec g     F .text	00000000 .hidden __gnu_Unwind_Restore_VFP_D
00001466  w    F .text	000000ea _ZN15P9813ControllerILh8ELh9EL6EOrder10ELh4EE9showColorERK4CRGBiS2_
00011b14 g     F .text	0000013c __multiply
00000ab8  w    F .text	0000002c _ZN15P9813ControllerILh8ELh9EL6EOrder10ELh4EE9clearLedsEi
00004200 g     F .text	00000016 usb_serial_putchar
00000490 g     F .text	00000026 _ZN8CFastLED7addLedsEP14CLEDControllerP4CRGBii
1fff9c58 g     O .bss	00000028 __malloc_current_mallinfo
00011ec4 g     F .text	000000ba __d2b
0000510c g     F .text	0000000c _ZNSt9type_infoD2Ev
00004460 g     F .text	000000ac __cxa_type_match
000025fc  w    F .text	00000006 can0_bus_off_isr
00003280 g     F .text	00000016 serial2_write
00002358  w    F .text	0000000c _ZN15HardwareSerial25writeEh
000050ec g     F .text	00000020 _ZNK10__cxxabiv120__si_class_type_info11__do_upcastEPKNS_17__class_type_infoEPKvRNS1_15__upcast_resultE
000022dc  w    F .text	0000000c _ZN15HardwareSerial25writeEm
0000e478 g     F .text	00000010 realloc
000010c8  w    F .text	0000001e _ZN15P9813ControllerILh8ELh9EL6EOrder10ELh4EE4initEv
1fff93fa g     O .bss	00000001 usb_rx_memory_needed
0000cb04 g     F .text	00000044 .hidden __gnu_Unwind_Resume
00003948 g     F .text	000005ec usb_isr
0000d6bc g     F .text	00000014 __cxa_atexit
00012e5c g     O .text	00000008 _ZTIN10__cxxabiv119__foreign_exceptionE
000121c4 g     F .text	00000024 _close_r
0000c118 g     F .text	00000022 .hidden __aeabi_i2d
0000d1fc g     F .text	00000000 .hidden __gnu_Unwind_Restore_VFP_D_16_to_31
0000e128 g     F .text	00000066 memcmp
00012d70  w    O .text	00000020 _ZTV16usb_serial_class
000025fc  w    F .text	00000006 uart3_error_isr
0000da6c g     F .text	00000062 _fwrite_r
000043ac g     F .text	0000001c _ZNSt9bad_allocD0Ev
00001984 g     F .text	0000000c _ZN8BaseModeD2Ev
00004ff0 g     F .text	00000014 _ZN10__cxxabiv120__si_class_type_infoD1Ev
00000bb0  w    F .text	00000072 _ZNSt6vectorIP8BaseModeSaIS1_EE19_M_emplace_back_auxIIS1_EEEvDpOT_
00002c98 g     F .text	0000005c serial_format
000042c8 g     F .text	00000044 _Z6randomv
00010254 g     F .text	000000c4 __swsetup_r
0000d2bc g     F .text	00000022 .hidden _Unwind_RaiseException
000123a0  w    F .text	00000002 .hidden __aeabi_ldiv0
00002764 g     F .text	00000050 porta_isr
0000c438 g     F .text	000001d0 .hidden __divdf3
00005118 g     F .text	00000004 _ZNKSt9type_info14__is_pointer_pEv
1fff80a0 g     O .usbbuffers	00000360 usb_buffer_memory
000025fc  w    F .text	00000006 low_voltage_isr
1fff88f4 g     O .data	00000408 __malloc_av_
000025fc  w    F .text	00000006 can0_error_isr
00002e20 g     F .text	000000c4 serial_write
00002ac8 g     F .text	0000007c _init_Teensyduino_internal_
0000c1e4 g     F .text	00000254 .hidden __muldf3
00011f80 g     F .text	00000022 __sread
00012dd8 g     O .text	00000014 _ZTVSt9exception
00003664 g     F .text	00000014 serial3_clear
00004218 g     F .text	0000005c usb_serial_flush_output
000025fc  w    F .text	00000006 dma_ch12_isr
0000e418 g     F .text	00000002 __malloc_lock
00000780 g     F .text	0000030a _ZN7Perlins6pnoiseEddd
00000000  w      *UND*	00000000 __fini_array_start
00012f60 g     O .text	0000002c _ZTVN10__cxxabiv117__class_type_infoE
00004ef0 g     F .text	00000090 __cxa_throw
0001149c g     F .text	0000002c _fflush_r
00012164 g     F .text	0000005e _calloc_r
0000230c  w    F .text	00000014 _ZN15HardwareSerial25beginEm
000024d4 g     F .text	00000018 pit3_isr
0000283c g     F .text	000000bc portc_isr
0000e384 g     F .text	00000094 memset
00000c44 g     F .text	00000350 main
1fff9c4c g     O .bss	00000004 __malloc_max_total_mem
00012ab0 g     O .text	00000018 _ZTV9ColorMode
1fff8d5c g     O .bss	00000001 LEDS
00003300 g     F .text	00000030 serial2_peek
0000487c g     F .text	00000008 __cxa_get_globals_fast
00000c22  w    F .text	00000020 _ZNSt6vectorIP8BaseModeSaIS1_EE12emplace_backIJS1_EEEvDpOT_
000025fc  w    F .text	00000006 memmanage_fault_isr
00011ffc g     F .text	00000008 __sclose
00003744 g     F .text	00000070 usb_init_serialnumber
00012268 g     F .text	00000010 fclose
00014310 g       .text	00000000 __init_array_end
00010510 g     F .text	00000e34 _dtoa_r
0000db60 g     F .text	00000538 _malloc_r
000025fc  w    F .text	00000006 debugmonitor_isr
00000fb0  w    F .text	0000001e _ZN15P9813ControllerILh10ELh11EL6EOrder10ELh4EE4initEv
0000484c g     F .text	00000008 _ZNKSt13bad_exception4whatEv
0000c188 g     F .text	0000005a .hidden __aeabi_l2d
00012f90 g     O .text	0000000c _ZTIN10__cxxabiv117__class_type_infoE
0000243c  w    F .text	0000000c _ZN15HardwareSerial39write9bitEm
00011838 g     F .text	0000004a _fwalk
00002a60 g     F .text	00000040 micros
00000000  w      *UND*	00000000 __libc_fini
00004838 g     F .text	0000000c _ZNSt13bad_exceptionD1Ev
000025fc  w    F .text	00000006 cmp1_isr
000025fc  w    F .text	00000006 ftm0_isr
00011600 g     F .text	0000009c _malloc_trim_r
0000caf0 g     F .text	00000014 .hidden __gnu_Unwind_ForcedUnwind
00004130 g     F .text	000000d0 usb_serial_write
1fff84a0 g     O .data	00000002 string0
00002610  w    F .text	00000002 startup_late_hook
00002420  w    F .text	00000004 _ZN15HardwareSerial34peekEv
00003fd4  w    F .text	00000004 _ZN16usb_serial_class9availableEv
0000e958 g     F .text	00000000 strcmp
000023cc  w    F .text	0000000c _ZN15HardwareSerial35writeEj
000023f8  w    F .text	00000020 _ZN15HardwareSerial35beginEmm
0000cb48 g     F .text	00000010 .hidden __gnu_Unwind_Resume_or_Rethrow
000023c0  w    F .text	0000000c _ZN15HardwareSerial35writeEl
1fff848a  w    O .data	00000002 usb_string_product_name
00000000  w      *UND*	00000000 __gnu_Unwind_Find_exidx
0000be60 g     F .text	00000012 copysign
00002cf4 g     F .text	00000058 serial_end
00002aa0 g     F .text	00000028 delay
0000c618 g     F .text	0000007a .hidden __nedf2
00014310 g     F .fini	00000000 _fini
00002214  w    F .text	0000000c _ZN14HardwareSerial5writeEj
0000d1c4 g     F .text	00000018 .hidden restore_core_regs
0000d2a8 g     F .text	00000000 .hidden __gnu_Unwind_Save_WMMXC
00005004 g     F .text	0000001c _ZN10__cxxabiv120__si_class_type_infoD0Ev
000006b0 g     F .text	00000014 _ZN7PerlinsD0Ev
0000e90c g     F .text	0000004c sprintf
00002b70 g     F .text	0000001a _ZN5Print6printfEPKcz
000025fc  w    F .text	00000006 i2s0_rx_isr
000025fc  w    F .text	00000006 uart4_error_isr
00002510 g     F .text	00000038 _ZN13IntervalTimer8stop_PITEv
000103d4 g     F .text	0000000c atexit
00002640  w    F .text	00000006 __cxa_guard_release
0001022c g     F .text	00000028 _write_r
0000d6a4 g     F .text	00000006 .hidden _Unwind_GetTextRelBase
0000461c g     F .text	0000001e __cxa_call_terminate
00000b70  w    F .text	00000040 _ZN14CLEDControllerC1Ev
00001672  w    F .text	000000fc _ZN15P9813ControllerILh10ELh11EL6EOrder10ELh4EE4showEPK4CRGBiS2_
000025fc  w    F .text	00000006 can0_message_isr
1fff88f0 g     O .data	00000004 _impure_ptr
00012df0 g     O .text	00000008 _ZTIN10__cxxabiv115__forced_unwindE
1fff8410 g     O .data	00000004 leds_one
00011348 g     F .text	00000152 __sflush_r
0000bd48 g     F .text	00000114 scalbn
000025fc  w    F .text	00000006 nmi_isr
00002348  w    F .text	00000004 _ZN15HardwareSerial24peekEv
00002548 g     F .text	00000012 _ZN13IntervalTimer3endEv
000142e8 g       .text	00000000 __preinit_array_end
000006a4 g     F .text	0000000c _ZN7PerlinsD2Ev
000042bc g     F .text	0000000c _Z10randomSeedm
000025fc  w    F .text	00000006 sdhc_isr
00012ba0  w    O .text	0000004c _ZTV15HardwareSerial3
00002428  w    F .text	00000004 _ZN15HardwareSerial35flushEv
0000d6d0 g     F .text	00000028 fputc
00000464  w    F .text	0000002c _ZN14CLEDController13getAdjustmentEh
000037f4 g     F .text	00000038 usb_rx
00012d18 g     O .text	00000054 usb_descriptor_list
00012e38 g     O .text	00000024 _ZTSN10__cxxabiv119__foreign_exceptionE
000025fc  w    F .text	00000006 dma_ch10_isr
000024ec g     F .text	00000024 _ZN13IntervalTimer11disable_PITEv
00002220  w    F .text	0000000c _ZN14HardwareSerial5writeEi
0000d688 g     F .text	00000012 .hidden _Unwind_GetLanguageSpecificData
000129c8 g     O .text	00000010 _ZTV7Perlins
0000c768 g     F .text	00000040 .hidden __aeabi_d2uiz
000025fc  w    F .text	00000006 uart0_error_isr
00004714 g     F .text	0000008c __cxa_begin_catch
000051b0 g     F .text	00000014 _ZN10__cxxabiv117__class_type_infoD2Ev
00004e94 g     F .text	00000008 _ZN10__cxxabiv112__unexpectedEPFvvE
00001550  w    F .text	000000ea _ZN15P9813ControllerILh6ELh7EL6EOrder10ELh4EE9showColorERK4CRGBiS2_
00004010 g     F .text	0000003c usb_malloc
0000186a  w    F .text	000000fc _ZN15P9813ControllerILh6ELh7EL6EOrder10ELh4EE4showEPK4CRGBiS2_
1fff9108 g     O .bss	00000010 _ZN13IntervalTimer7PIT_ISRE
0000163a  w    F .text	00000038 _ZN15PixelControllerIL6EOrder10EEC2EPK4CRGBiRS2_h
0000cb6c g     F .text	00000034 .hidden _Unwind_VRS_Get
20008000 g       *ABS*	00000000 _estack
00004868 g     F .text	00000014 _ZNSt13bad_exceptionD0Ev
1fff84c4 g     O .data	00000004 _ZN10__cxxabiv119__terminate_handlerE
0000d294 g     F .text	00000000 .hidden __gnu_Unwind_Restore_WMMXC
0000aad8 g     F .text	0000001c __gcclibcxx_demangle_callback
0000c6b4 g     F .text	00000012 .hidden __aeabi_dcmpeq
000043c8 g     F .text	00000058 __cxa_allocate_exception
0000dad0 g     F .text	00000020 fwrite
00012ef0 g     O .text	0000000c _ZTIN10__cxxabiv120__si_class_type_infoE
00002b64  w    F .text	0000000c _write
0000d650 g     F .text	0000002a .hidden __gnu_unwind_frame
0000d328 g     F .text	00000022 .hidden _Unwind_ForcedUnwind
1fff8d3c g       .data	00000000 _edata
000025fc  w    F .text	00000006 i2s0_tx_isr
000025fc  w    F .text	00000006 adc1_isr
00000b10 g     F .text	0000003c _Z16modeButtonChangev
0000d6f8 g     F .text	0000004c _fputs_r
000025fc  w    F .text	00000006 cmp0_isr
000026aa g     F .text	0000003c ultoa
00001344  w    F .text	00000038 _ZN15PixelControllerIL6EOrder10EEC2ERK4CRGBiRS2_h
0000482c g     F .text	0000000c _ZNSt9exceptionD1Ev
1fff840c g     O .data	00000004 leds_two
00011fa4 g     F .text	00000038 __swrite
00004338 g     F .text	00000058 _Znwj
1fff8cfc g     O .data	00000004 __malloc_trim_threshold
00003fdc  w    F .text	00000004 _ZN16usb_serial_class4peekEv
000012e4  w    F .text	00000060 _ZN15PixelControllerIL6EOrder10EE21init_binary_ditheringEv
000129d8  w    O .text	00000018 _ZTV14CLEDController
000025b8 g     F .text	00000010 systick_default_isr
00005020 g     F .text	00000034 _ZNK10__cxxabiv120__si_class_type_info20__do_find_public_srcEiPKvPKNS_17__class_type_infoES2_
00011df0 g     F .text	000000d4 __mdiff
0000c718 g     F .text	0000004e .hidden __aeabi_d2iz
00004e5c g     F .text	00000026 _ZN10__cxxabiv111__terminateEPFvvE
0000d250 g     F .text	00000000 .hidden __gnu_Unwind_Save_WMMXD
00002272  w    F .text	00000004 _ZN14HardwareSerial4readEv
0000234c  w    F .text	00000004 _ZN15HardwareSerial24readEv
1fff9418 g     O .bss	00000001 usb_cdc_transmit_flush_timer
00002694 g     F .text	00000004 _kill
00004398 g     F .text	00000014 _ZNSt9bad_allocD1Ev
000144cc g       .ARM.extab	00000000 __extab_start
1fff90ce g     O .bss	00000002 _ZN11AudioStream16cpu_cycles_totalE
000019dc g     F .text	000000c0 _ZN9ColorMode5frameEv
0000430c g     F .text	00000014 _Z3maplllll
000115cc g     F .text	00000002 __sfp_lock_release
00012eb0 g     O .text	0000000c _ZTISt13bad_exception
000019b0  w    F .text	00000004 _ZN9ColorMode4nameEv
000025fc  w    F .text	00000006 dac0_isr
000011e8  w    F .text	0000001e _ZN15P9813ControllerILh6ELh7EL6EOrder10ELh4EE4initEv
00003298 g     F .text	00000014 serial2_flush
00000bb0  w    F .text	00000072 _ZNSt6vectorIP8BaseModeSaIS1_EE19_M_emplace_back_auxIJS1_EEEvDpOT_
00002612  w    F .text	00000004 _read
000123a0  w    F .text	00000002 .hidden __aeabi_idiv0
000142e8 g       .text	00000000 __init_array_start
000006c4 g     F .text	0000000c _ZN7PerlinsC2Ev
1fff8d60 g     O .bss	00000004 _ZN14CLEDController7m_pHeadE
000020a8 g     F .text	000000e0 analogRead
00012ad0 g     O .text	00000018 _ZTV8MeltMode
00002fbc g     F .text	000000f8 uart0_status_isr
00002630  w    F .text	00000002 _exit
000025fc  w    F .text	00000006 mcg_isr
00003634 g     F .text	00000030 serial3_peek
00004884 g     F .text	00000008 __cxa_get_globals
00000400 g     O .text	00000010 flashconfigbytes
0001188c g     F .text	000000e0 __smakebuf_r
1fff84c0 g     O .data	00000004 _ZN10__cxxabiv120__unexpected_handlerE
0000269c g     F .text	0000000e strlen
00012f24 g     O .text	00000008 _ZTISt9type_info
0000cf68  w    F .text	00000006 .hidden __aeabi_unwind_cpp_pr1
0000c6a4 g     F .text	00000010 .hidden __aeabi_cdcmpeq
0000c608 g     F .text	0000008a .hidden __gedf2
0000371c  w    F .text	0000000c _ZN13IntervalTimerD1Ev
00012e80 g     O .text	0000000d _ZTSSt9exception
1fff848a g     O .data	00000002 usb_string_product_name_default
1fff90b4  w    O .bss	00000004 _ZGVZN8CFastLED7addLedsIL12ESPIChipsets4ELh6ELh7EL6EOrder10ELh4EEER14CLEDControllerP4CRGBiiE1c_3
00002296  w    F .text	00000010 _ZN14HardwareSerial5writeEPKhj
0001016c g     F .text	00000018 vdprintf
000025fc  w    F .text	00000006 dma_ch1_isr
0000aaf4 g     F .text	0000001a __cxa_current_exception_type
00012340 g     F .text	00000030 .hidden __gnu_ldivmod_helper
00004854 g     F .text	00000014 _ZNSt9exceptionD0Ev
000145fc g       .ARM.extab	00000000 __extab_end
000019a4 g     F .text	0000000c _ZN8BaseModeC2Ev
0000382c g     F .text	00000024 usb_tx_packet_count
000022e8  w    F .text	0000000c _ZN15HardwareSerial25writeEl
0000c13c g     F .text	0000003a .hidden __aeabi_f2d
000025fc  w    F .text	00000006 dma_ch5_isr
0000d744 g     F .text	00000010 fputs
0000d69c g     F .text	00000006 .hidden _Unwind_GetDataRelBase
000025fc  w    F .text	00000006 can0_rx_warn_isr
1fff9100 g     O .bss	00000004 _ZN13IntervalTimer8PIT_usedE
00002f18 g     F .text	00000034 serial_getchar
00000ae4  w    F .text	0000002c _ZN15P9813ControllerILh6ELh7EL6EOrder10ELh4EE9clearLedsEi
0000241c  w    F .text	00000004 _ZN15HardwareSerial39availableEv
000025fc  w    F .text	00000006 can0_tx_warn_isr
000025fc  w    F .text	00000006 uart4_status_isr
00000000  w      *UND*	00000000 _Jv_RegisterClasses
1fff90cc g     O .bss	00000002 _ZN11AudioStream20cpu_cycles_total_maxE
0000be7c g     F .text	0000027a .hidden __subdf3
000142e8 g       .text	00000000 __preinit_array_start
00011aa4 g     F .text	0000005a __lo0bits
00002f4c g     F .text	00000030 serial_peek
00004324 g     F .text	0000000a __aeabi_atexit
00005138 g     F .text	0000002e _ZNKSt9type_infoeqERKS_
00002634  w    F .text	0000000c __cxa_guard_acquire
00000000  w      *UND*	00000000 __register_frame_info
00002d4c g     F .text	00000038 serial_set_transmit_pin
000025fc  w    F .text	00000006 cmp2_isr
000025fc  w    F .text	00000006 pendablesrvreq_isr
000025fc  w    F .text	00000006 wakeup_isr
00012e90 g     O .text	00000020 _ZTSN10__cxxabiv115__forced_unwindE
000019a4 g     F .text	0000000c _ZN8BaseModeC1Ev
00005168 g     F .text	00000004 _ZNKSt9type_info10__do_catchEPKS_PPvj
00000000 g     O .text	000001bc gVectors
00002b8a g     F .text	00000070 _ZN5Print11printNumberEmhh
00003470 g     F .text	0000005c serial3_format
0000e8d0 g     F .text	00000010 raise
00002616  w    F .text	00000006 _close
0000db50 g     F .text	00000010 free
0000525c g     F .text	00000114 _ZN9__gnu_cxx27__verbose_terminate_handlerEv
000119cc g     F .text	00000096 __multadd
000051c4 g     F .text	0000001c _ZN10__cxxabiv117__class_type_infoD0Ev
000119b8 g     F .text	00000012 _Bfree
1fff90e0 g     O .bss	00000010 Serial2
00000536 g     F .text	0000016e _Z15hsv2rgb_rainbowRK4CHSVR4CRGB
000025fc  w    F .text	00000006 dma_ch0_isr
1fff84a4  w    O .data	00000002 usb_string_serial_number



Disassembly of section .text:

00000000 <gVectors>:
       0:	00 80 00 20 bd 01 00 00 fd 25 00 00 fd 25 00 00     ... .....%...%..
      10:	fd 25 00 00 fd 25 00 00 fd 25 00 00 c9 25 00 00     .%...%...%...%..
      20:	c9 25 00 00 c9 25 00 00 c9 25 00 00 fd 25 00 00     .%...%...%...%..
      30:	fd 25 00 00 c9 25 00 00 fd 25 00 00 b9 25 00 00     .%...%...%...%..
      40:	fd 25 00 00 fd 25 00 00 fd 25 00 00 fd 25 00 00     .%...%...%...%..
      50:	fd 25 00 00 fd 25 00 00 fd 25 00 00 fd 25 00 00     .%...%...%...%..
      60:	fd 25 00 00 fd 25 00 00 fd 25 00 00 fd 25 00 00     .%...%...%...%..
      70:	fd 25 00 00 fd 25 00 00 fd 25 00 00 fd 25 00 00     .%...%...%...%..
      80:	fd 25 00 00 fd 25 00 00 fd 25 00 00 fd 25 00 00     .%...%...%...%..
      90:	fd 25 00 00 fd 25 00 00 fd 25 00 00 fd 25 00 00     .%...%...%...%..
      a0:	fd 25 00 00 fd 25 00 00 fd 25 00 00 fd 25 00 00     .%...%...%...%..
      b0:	fd 25 00 00 fd 25 00 00 fd 25 00 00 fd 25 00 00     .%...%...%...%..
      c0:	fd 25 00 00 fd 25 00 00 fd 25 00 00 fd 25 00 00     .%...%...%...%..
      d0:	fd 25 00 00 fd 25 00 00 fd 25 00 00 fd 25 00 00     .%...%...%...%..
      e0:	fd 25 00 00 fd 25 00 00 fd 25 00 00 fd 25 00 00     .%...%...%...%..
      f0:	fd 25 00 00 bd 2f 00 00 fd 25 00 00 45 33 00 00     .%.../...%..E3..
     100:	fd 25 00 00 79 36 00 00 fd 25 00 00 fd 25 00 00     .%..y6...%...%..
     110:	fd 25 00 00 fd 25 00 00 fd 25 00 00 fd 25 00 00     .%...%...%...%..
     120:	fd 25 00 00 fd 25 00 00 fd 25 00 00 fd 25 00 00     .%...%...%...%..
     130:	fd 25 00 00 fd 25 00 00 fd 25 00 00 fd 25 00 00     .%...%...%...%..
     140:	fd 25 00 00 fd 25 00 00 fd 25 00 00 fd 25 00 00     .%...%...%...%..
     150:	8d 24 00 00 a5 24 00 00 bd 24 00 00 d5 24 00 00     .$...$...$...$..
     160:	fd 25 00 00 49 39 00 00 fd 25 00 00 fd 25 00 00     .%..I9...%...%..
     170:	fd 25 00 00 fd 25 00 00 fd 25 00 00 fd 25 00 00     .%...%...%...%..
     180:	fd 25 00 00 fd 25 00 00 fd 25 00 00 fd 25 00 00     .%...%...%...%..
     190:	fd 25 00 00 fd 25 00 00 fd 25 00 00 65 27 00 00     .%...%...%..e'..
     1a0:	b5 27 00 00 3d 28 00 00 f9 28 00 00 7d 29 00 00     .'..=(...(..})..
     1b0:	fd 25 00 00 fd 25 00 00 89 21 00 00                 .%...%...!..

000001bc <ResetHandler>:
void startup_early_hook(void)		__attribute__ ((weak, alias("startup_default_early_hook")));
void startup_late_hook(void)		__attribute__ ((weak, alias("startup_default_late_hook")));

__attribute__ ((section(".startup")))
void ResetHandler(void)
{
     1bc:	b508      	push	{r3, lr}
	unsigned int i;
#if F_CPU <= 2000000
	volatile int n;
#endif

	WDOG_UNLOCK = WDOG_UNLOCK_SEQ1;
     1be:	4b49      	ldr	r3, [pc, #292]	; (2e4 <ResetHandler+0x128>)
     1c0:	f24c 5220 	movw	r2, #50464	; 0xc520
     1c4:	801a      	strh	r2, [r3, #0]
	WDOG_UNLOCK = WDOG_UNLOCK_SEQ2;
     1c6:	f64d 1228 	movw	r2, #55592	; 0xd928
     1ca:	801a      	strh	r2, [r3, #0]
	__asm__ volatile ("nop");
     1cc:	bf00      	nop
	__asm__ volatile ("nop");
     1ce:	bf00      	nop
	// programs using the watchdog timer or needing to initialize hardware as
	// early as possible can implement startup_early_hook()
	startup_early_hook();
     1d0:	f002 fa18 	bl	2604 <startup_early_hook>
	// enable clocks to always-used peripherals
#if defined(__MK20DX128__)
	SIM_SCGC5 = 0x00043F82;		// clocks active to all GPIO
	SIM_SCGC6 = SIM_SCGC6_RTC | SIM_SCGC6_FTM0 | SIM_SCGC6_FTM1 | SIM_SCGC6_ADC0 | SIM_SCGC6_FTFL;
#elif defined(__MK20DX256__)
	SIM_SCGC3 = SIM_SCGC3_ADC1 | SIM_SCGC3_FTM2;
     1d4:	4b44      	ldr	r3, [pc, #272]	; (2e8 <ResetHandler+0x12c>)
     1d6:	f04f 6210 	mov.w	r2, #150994944	; 0x9000000
     1da:	601a      	str	r2, [r3, #0]
	SIM_SCGC5 = 0x00043F82;		// clocks active to all GPIO
     1dc:	4a43      	ldr	r2, [pc, #268]	; (2ec <ResetHandler+0x130>)
     1de:	609a      	str	r2, [r3, #8]
	SIM_SCGC6 = SIM_SCGC6_RTC | SIM_SCGC6_FTM0 | SIM_SCGC6_FTM1 | SIM_SCGC6_ADC0 | SIM_SCGC6_FTFL;
     1e0:	4a43      	ldr	r2, [pc, #268]	; (2f0 <ResetHandler+0x134>)
     1e2:	60da      	str	r2, [r3, #12]
#endif
	// if the RTC oscillator isn't enabled, get it started early
	if (!(RTC_CR & RTC_CR_OSCE)) {
     1e4:	f5a3 4330 	sub.w	r3, r3, #45056	; 0xb000
     1e8:	3b20      	subs	r3, #32
     1ea:	681a      	ldr	r2, [r3, #0]
     1ec:	f412 7280 	ands.w	r2, r2, #256	; 0x100
     1f0:	d104      	bne.n	1fc <ResetHandler+0x40>
		RTC_SR = 0;
     1f2:	4940      	ldr	r1, [pc, #256]	; (2f4 <ResetHandler+0x138>)
     1f4:	600a      	str	r2, [r1, #0]
		RTC_CR = RTC_CR_SC16P | RTC_CR_SC4P | RTC_CR_OSCE;
     1f6:	f44f 52a8 	mov.w	r2, #5376	; 0x1500
     1fa:	601a      	str	r2, [r3, #0]
	}

	// release I/O pins hold, if we woke up from VLLS mode
	if (PMC_REGSC & PMC_REGSC_ACKISO) PMC_REGSC |= PMC_REGSC_ACKISO;
     1fc:	4b3e      	ldr	r3, [pc, #248]	; (2f8 <ResetHandler+0x13c>)
     1fe:	781a      	ldrb	r2, [r3, #0]
     200:	0711      	lsls	r1, r2, #28
     202:	d503      	bpl.n	20c <ResetHandler+0x50>
     204:	781a      	ldrb	r2, [r3, #0]
     206:	f042 0208 	orr.w	r2, r2, #8
     20a:	701a      	strb	r2, [r3, #0]

    // since this is a write once register, make it visible to all F_CPU's
    // so we can into other sleep modes in the future at any speed
	SMC_PMPROT = SMC_PMPROT_AVLP | SMC_PMPROT_ALLS | SMC_PMPROT_AVLLS;
     20c:	4b3b      	ldr	r3, [pc, #236]	; (2fc <ResetHandler+0x140>)
     20e:	222a      	movs	r2, #42	; 0x2a
     210:	701a      	strb	r2, [r3, #0]
    
	// TODO: do this while the PLL is waiting to lock....
	while (dest < &_edata) *dest++ = *src++;
     212:	2300      	movs	r3, #0
     214:	4a3a      	ldr	r2, [pc, #232]	; (300 <ResetHandler+0x144>)
     216:	493b      	ldr	r1, [pc, #236]	; (304 <ResetHandler+0x148>)
     218:	1898      	adds	r0, r3, r2
     21a:	4288      	cmp	r0, r1
     21c:	d204      	bcs.n	228 <ResetHandler+0x6c>
     21e:	493a      	ldr	r1, [pc, #232]	; (308 <ResetHandler+0x14c>)
     220:	5859      	ldr	r1, [r3, r1]
     222:	5099      	str	r1, [r3, r2]
     224:	3304      	adds	r3, #4
     226:	e7f5      	b.n	214 <ResetHandler+0x58>
     228:	4b38      	ldr	r3, [pc, #224]	; (30c <ResetHandler+0x150>)
	dest = &_sbss;
	while (dest < &_ebss) *dest++ = 0;
     22a:	4a39      	ldr	r2, [pc, #228]	; (310 <ResetHandler+0x154>)
     22c:	4293      	cmp	r3, r2
     22e:	f04f 0200 	mov.w	r2, #0
     232:	d202      	bcs.n	23a <ResetHandler+0x7e>
     234:	f843 2b04 	str.w	r2, [r3], #4
     238:	e7f7      	b.n	22a <ResetHandler+0x6e>
	SCB_VTOR = 0;	// use vector table in flash
     23a:	4b36      	ldr	r3, [pc, #216]	; (314 <ResetHandler+0x158>)
     23c:	601a      	str	r2, [r3, #0]
     23e:	f6a3 1308 	subw	r3, r3, #2312	; 0x908

	// default all interrupts to medium priority level
	for (i=0; i < NVIC_NUM_INTERRUPTS; i++) NVIC_SET_PRIORITY(i, 128);
     242:	2280      	movs	r2, #128	; 0x80
     244:	f803 2b01 	strb.w	r2, [r3], #1
     248:	4a33      	ldr	r2, [pc, #204]	; (318 <ResetHandler+0x15c>)
     24a:	4293      	cmp	r3, r2
     24c:	d1f9      	bne.n	242 <ResetHandler+0x86>
	//  C1[IREFS] bit is written to 1
	//  C6[PLLS] bit is written to 0
	//  C2[LP] bit is written to 1
#else
	// enable capacitors for crystal
	OSC0_CR = OSC_SC8P | OSC_SC2P;
     24e:	4b33      	ldr	r3, [pc, #204]	; (31c <ResetHandler+0x160>)
     250:	220a      	movs	r2, #10
     252:	701a      	strb	r2, [r3, #0]
	// enable osc, 8-32 MHz range, low power mode
	MCG_C2 = MCG_C2_RANGE0(2) | MCG_C2_EREFS;
     254:	f6a3 73ff 	subw	r3, r3, #4095	; 0xfff
     258:	2224      	movs	r2, #36	; 0x24
     25a:	701a      	strb	r2, [r3, #0]
	// switch to crystal as clock source, FLL input = 16 MHz / 512
	MCG_C1 =  MCG_C1_CLKS(2) | MCG_C1_FRDIV(4);
     25c:	22a0      	movs	r2, #160	; 0xa0
     25e:	f803 2c01 	strb.w	r2, [r3, #-1]
	// wait for crystal oscillator to begin
	while ((MCG_S & MCG_S_OSCINIT0) == 0) ;
     262:	4b2f      	ldr	r3, [pc, #188]	; (320 <ResetHandler+0x164>)
     264:	781a      	ldrb	r2, [r3, #0]
     266:	0792      	lsls	r2, r2, #30
     268:	d5fb      	bpl.n	262 <ResetHandler+0xa6>
	// wait for FLL to use oscillator
	while ((MCG_S & MCG_S_IREFST) != 0) ;
     26a:	781a      	ldrb	r2, [r3, #0]
     26c:	06d0      	lsls	r0, r2, #27
     26e:	d4fc      	bmi.n	26a <ResetHandler+0xae>
	// wait for MCGOUT to use oscillator
	while ((MCG_S & MCG_S_CLKST_MASK) != MCG_S_CLKST(2)) ;
     270:	781a      	ldrb	r2, [r3, #0]
     272:	f002 020c 	and.w	r2, r2, #12
     276:	2a08      	cmp	r2, #8
     278:	d1fa      	bne.n	270 <ResetHandler+0xb4>
	//   C1[IREFS] bit is written to 0
	//   C2[LP] bit is written to 1
  #else
	// if we need faster than the crystal, turn on the PLL
    #if F_CPU == 72000000
	MCG_C5 = MCG_C5_PRDIV0(5);		 // config PLL input for 16 MHz Crystal / 6 = 2.667 Hz
     27a:	4b2a      	ldr	r3, [pc, #168]	; (324 <ResetHandler+0x168>)
     27c:	2205      	movs	r2, #5
     27e:	701a      	strb	r2, [r3, #0]
    #elif F_CPU == 144000000
	MCG_C6 = MCG_C6_PLLS | MCG_C6_VDIV0(12); // config PLL for 144 MHz output
    #elif F_CPU == 120000000
	MCG_C6 = MCG_C6_PLLS | MCG_C6_VDIV0(6); // config PLL for 120 MHz output
    #elif F_CPU == 72000000
	MCG_C6 = MCG_C6_PLLS | MCG_C6_VDIV0(3); // config PLL for 72 MHz output
     280:	2243      	movs	r2, #67	; 0x43
     282:	705a      	strb	r2, [r3, #1]
    #else
	MCG_C6 = MCG_C6_PLLS | MCG_C6_VDIV0(0); // config PLL for 96 MHz output
    #endif
	// wait for PLL to start using xtal as its input
	while (!(MCG_S & MCG_S_PLLST)) ;
     284:	4b26      	ldr	r3, [pc, #152]	; (320 <ResetHandler+0x164>)
     286:	781a      	ldrb	r2, [r3, #0]
     288:	0691      	lsls	r1, r2, #26
     28a:	d5fb      	bpl.n	284 <ResetHandler+0xc8>
	// wait for PLL to lock
	while (!(MCG_S & MCG_S_LOCK0)) ;
     28c:	781a      	ldrb	r2, [r3, #0]
     28e:	0652      	lsls	r2, r2, #25
     290:	d5fc      	bpl.n	28c <ResetHandler+0xd0>
	// config divisors: 96 MHz core, 48 MHz bus, 24 MHz flash, USB = 96 / 2
	SIM_CLKDIV1 = SIM_CLKDIV1_OUTDIV1(0) | SIM_CLKDIV1_OUTDIV2(1) |	 SIM_CLKDIV1_OUTDIV4(3);
	SIM_CLKDIV2 = SIM_CLKDIV2_USBDIV(1);
#elif F_CPU == 72000000
	// config divisors: 72 MHz core, 36 MHz bus, 24 MHz flash, USB = 72 * 2 / 3
	SIM_CLKDIV1 = SIM_CLKDIV1_OUTDIV1(0) | SIM_CLKDIV1_OUTDIV2(1) |	 SIM_CLKDIV1_OUTDIV4(2);
     292:	4b25      	ldr	r3, [pc, #148]	; (328 <ResetHandler+0x16c>)
     294:	f04f 7281 	mov.w	r2, #16908288	; 0x1020000
     298:	601a      	str	r2, [r3, #0]
	SIM_CLKDIV2 = SIM_CLKDIV2_USBDIV(2) | SIM_CLKDIV2_USBFRAC;
     29a:	2205      	movs	r2, #5
     29c:	605a      	str	r2, [r3, #4]
#error "Error, F_CPU must be 168, 144, 120, 96, 72, 48, 24, 16, 8, 4, or 2 MHz"
#endif

#if F_CPU > 16000000
	// switch to PLL as clock source, FLL input = 16 MHz / 512
	MCG_C1 = MCG_C1_CLKS(0) | MCG_C1_FRDIV(4);
     29e:	4b23      	ldr	r3, [pc, #140]	; (32c <ResetHandler+0x170>)
     2a0:	2220      	movs	r2, #32
     2a2:	701a      	strb	r2, [r3, #0]
	// wait for PLL clock to be used
	while ((MCG_S & MCG_S_CLKST_MASK) != MCG_S_CLKST(3)) ;
     2a4:	4b1e      	ldr	r3, [pc, #120]	; (320 <ResetHandler+0x164>)
     2a6:	781b      	ldrb	r3, [r3, #0]
     2a8:	f003 030c 	and.w	r3, r3, #12
     2ac:	2b0c      	cmp	r3, #12
     2ae:	d1f9      	bne.n	2a4 <ResetHandler+0xe8>
	// now we're in PEE mode
	// USB uses PLL clock, trace is CPU clock, CLKOUT=OSCERCLK0
	SIM_SOPT2 = SIM_SOPT2_USBSRC | SIM_SOPT2_PLLFLLSEL | SIM_SOPT2_TRACECLKSEL | SIM_SOPT2_CLKOUTSEL(6);
     2b0:	4b1f      	ldr	r3, [pc, #124]	; (330 <ResetHandler+0x174>)
     2b2:	4a20      	ldr	r2, [pc, #128]	; (334 <ResetHandler+0x178>)
     2b4:	601a      	str	r2, [r3, #0]
    // since we are not going into "stop mode" i removed it
	SMC_PMCTRL = SMC_PMCTRL_RUNM(2); // VLPR mode :-)
#endif

	// initialize the SysTick counter
	SYST_RVR = (F_CPU / 1000) - 1;
     2b6:	4b20      	ldr	r3, [pc, #128]	; (338 <ResetHandler+0x17c>)
     2b8:	4a20      	ldr	r2, [pc, #128]	; (33c <ResetHandler+0x180>)
     2ba:	601a      	str	r2, [r3, #0]
	SYST_CSR = SYST_CSR_CLKSOURCE | SYST_CSR_TICKINT | SYST_CSR_ENABLE;
     2bc:	2207      	movs	r2, #7
     2be:	f843 2c04 	str.w	r2, [r3, #-4]

	//init_pins();
	__enable_irq();
     2c2:	b662      	cpsie	i
	__libc_init_array();
     2c4:	f00d fc14 	bl	daf0 <__libc_init_array>

	_init_Teensyduino_internal_();
     2c8:	f002 fbfe 	bl	2ac8 <_init_Teensyduino_internal_>
	if (RTC_SR & RTC_SR_TIF) {
     2cc:	4b09      	ldr	r3, [pc, #36]	; (2f4 <ResetHandler+0x138>)
     2ce:	681b      	ldr	r3, [r3, #0]
     2d0:	07db      	lsls	r3, r3, #31
     2d2:	d502      	bpl.n	2da <ResetHandler+0x11e>
		// TODO: this should probably set the time more agressively, if
		// we could reliably detect the first reboot after programming.
		rtc_set(TIME_T);
     2d4:	481a      	ldr	r0, [pc, #104]	; (340 <ResetHandler+0x184>)
     2d6:	f002 fb69 	bl	29ac <rtc_set>
	}

	startup_late_hook();
     2da:	f002 f999 	bl	2610 <startup_late_hook>
	main();
     2de:	f000 fcb1 	bl	c44 <main>
     2e2:	e7fe      	b.n	2e2 <ResetHandler+0x126>
     2e4:	4005200e 	.word	0x4005200e
     2e8:	40048030 	.word	0x40048030
     2ec:	00043f82 	.word	0x00043f82
     2f0:	2b000001 	.word	0x2b000001
     2f4:	4003d014 	.word	0x4003d014
     2f8:	4007d002 	.word	0x4007d002
     2fc:	4007e000 	.word	0x4007e000
     300:	1fff8400 	.word	0x1fff8400
     304:	1fff8d3c 	.word	0x1fff8d3c
     308:	000145fc 	.word	0x000145fc
     30c:	1fff8d40 	.word	0x1fff8d40
     310:	1fff9c94 	.word	0x1fff9c94
     314:	e000ed08 	.word	0xe000ed08
     318:	e000e45f 	.word	0xe000e45f
     31c:	40065000 	.word	0x40065000
     320:	40064006 	.word	0x40064006
     324:	40064004 	.word	0x40064004
     328:	40048044 	.word	0x40048044
     32c:	40064000 	.word	0x40064000
     330:	40048004 	.word	0x40048004
     334:	000510c0 	.word	0x000510c0
     338:	e000e014 	.word	0xe000e014
     33c:	0001193f 	.word	0x0001193f
     340:	5068dd00 	.word	0x5068dd00
     344:	ffffffff 	.word	0xffffffff
     348:	ffffffff 	.word	0xffffffff
     34c:	ffffffff 	.word	0xffffffff
     350:	ffffffff 	.word	0xffffffff
     354:	ffffffff 	.word	0xffffffff
     358:	ffffffff 	.word	0xffffffff
     35c:	ffffffff 	.word	0xffffffff
     360:	ffffffff 	.word	0xffffffff
     364:	ffffffff 	.word	0xffffffff
     368:	ffffffff 	.word	0xffffffff
     36c:	ffffffff 	.word	0xffffffff
     370:	ffffffff 	.word	0xffffffff
     374:	ffffffff 	.word	0xffffffff
     378:	ffffffff 	.word	0xffffffff
     37c:	ffffffff 	.word	0xffffffff
     380:	ffffffff 	.word	0xffffffff
     384:	ffffffff 	.word	0xffffffff
     388:	ffffffff 	.word	0xffffffff
     38c:	ffffffff 	.word	0xffffffff
     390:	ffffffff 	.word	0xffffffff
     394:	ffffffff 	.word	0xffffffff
     398:	ffffffff 	.word	0xffffffff
     39c:	ffffffff 	.word	0xffffffff
     3a0:	ffffffff 	.word	0xffffffff
     3a4:	ffffffff 	.word	0xffffffff
     3a8:	ffffffff 	.word	0xffffffff
     3ac:	ffffffff 	.word	0xffffffff
     3b0:	ffffffff 	.word	0xffffffff
     3b4:	ffffffff 	.word	0xffffffff
     3b8:	ffffffff 	.word	0xffffffff
     3bc:	ffffffff 	.word	0xffffffff
     3c0:	ffffffff 	.word	0xffffffff
     3c4:	ffffffff 	.word	0xffffffff
     3c8:	ffffffff 	.word	0xffffffff
     3cc:	ffffffff 	.word	0xffffffff
     3d0:	ffffffff 	.word	0xffffffff
     3d4:	ffffffff 	.word	0xffffffff
     3d8:	ffffffff 	.word	0xffffffff
     3dc:	ffffffff 	.word	0xffffffff
     3e0:	ffffffff 	.word	0xffffffff
     3e4:	ffffffff 	.word	0xffffffff
     3e8:	ffffffff 	.word	0xffffffff
     3ec:	ffffffff 	.word	0xffffffff
     3f0:	ffffffff 	.word	0xffffffff
     3f4:	ffffffff 	.word	0xffffffff
     3f8:	ffffffff 	.word	0xffffffff
     3fc:	ffffffff 	.word	0xffffffff

00000400 <flashconfigbytes>:
     400:	ffffffff ffffffff ffffffff fffffffe     ................

00000410 <__do_global_dtors_aux>:
     410:	b510      	push	{r4, lr}
     412:	4c05      	ldr	r4, [pc, #20]	; (428 <__do_global_dtors_aux+0x18>)
     414:	7823      	ldrb	r3, [r4, #0]
     416:	b933      	cbnz	r3, 426 <__do_global_dtors_aux+0x16>
     418:	4b04      	ldr	r3, [pc, #16]	; (42c <__do_global_dtors_aux+0x1c>)
     41a:	b113      	cbz	r3, 422 <__do_global_dtors_aux+0x12>
     41c:	4804      	ldr	r0, [pc, #16]	; (430 <__do_global_dtors_aux+0x20>)
     41e:	f3af 8000 	nop.w
     422:	2301      	movs	r3, #1
     424:	7023      	strb	r3, [r4, #0]
     426:	bd10      	pop	{r4, pc}
     428:	1fff8d40 	.word	0x1fff8d40
     42c:	00000000 	.word	0x00000000
     430:	000145fc 	.word	0x000145fc

00000434 <frame_dummy>:
     434:	b508      	push	{r3, lr}
     436:	4b06      	ldr	r3, [pc, #24]	; (450 <frame_dummy+0x1c>)
     438:	b11b      	cbz	r3, 442 <frame_dummy+0xe>
     43a:	4806      	ldr	r0, [pc, #24]	; (454 <frame_dummy+0x20>)
     43c:	4906      	ldr	r1, [pc, #24]	; (458 <frame_dummy+0x24>)
     43e:	f3af 8000 	nop.w
     442:	4806      	ldr	r0, [pc, #24]	; (45c <frame_dummy+0x28>)
     444:	6803      	ldr	r3, [r0, #0]
     446:	b113      	cbz	r3, 44e <frame_dummy+0x1a>
     448:	4b05      	ldr	r3, [pc, #20]	; (460 <frame_dummy+0x2c>)
     44a:	b103      	cbz	r3, 44e <frame_dummy+0x1a>
     44c:	4798      	blx	r3
     44e:	bd08      	pop	{r3, pc}
     450:	00000000 	.word	0x00000000
     454:	000145fc 	.word	0x000145fc
     458:	1fff8d44 	.word	0x1fff8d44
     45c:	1fff8d3c 	.word	0x1fff8d3c
     460:	00000000 	.word	0x00000000

00000464 <_ZN14CLEDController13getAdjustmentEh>:
    {
    }

    // allow construction from R, G, B
    inline CRGB( uint8_t ir, uint8_t ig, uint8_t ib)  __attribute__((always_inline))
        : r(ir), g(ig), b(ib)
     464:	2300      	movs	r3, #0

    CLEDController & setTemperature(CRGB temperature) { m_ColorTemperature = temperature; return *this; }
    CLEDController & setTemperature(ColorTemperature temperature) { m_ColorTemperature = temperature; return *this; }
    CRGB getTemperature() { return m_ColorTemperature; }

    CRGB getAdjustment(uint8_t scale) {
     466:	b530      	push	{r4, r5, lr}
     468:	7003      	strb	r3, [r0, #0]
     46a:	7043      	strb	r3, [r0, #1]
     46c:	7083      	strb	r3, [r0, #2]
#if defined(NO_CORRECTION) && (NO_CORRECTION==1)
        return CRGB(scale,scale,scale);
#else
        CRGB adj(0,0,0);

        if(scale > 0) {
     46e:	b172      	cbz	r2, 48e <_ZN14CLEDController13getAdjustmentEh+0x2a>
            for(uint8_t i = 0; i < 3; i++) {
                uint8_t cc = m_ColorCorrection.raw[i];
     470:	7b0d      	ldrb	r5, [r1, #12]
                uint8_t ct = m_ColorTemperature.raw[i];
     472:	7bcc      	ldrb	r4, [r1, #15]
                if(cc > 0 && ct > 0) {
     474:	b135      	cbz	r5, 484 <_ZN14CLEDController13getAdjustmentEh+0x20>
     476:	b12c      	cbz	r4, 484 <_ZN14CLEDController13getAdjustmentEh+0x20>
                    uint32_t work = (((uint32_t)cc)+1) * (((uint32_t)ct)+1) * scale;
     478:	3401      	adds	r4, #1
     47a:	fb05 4404 	mla	r4, r5, r4, r4
     47e:	4354      	muls	r4, r2
                    work /= 0x10000L;
     480:	0c24      	lsrs	r4, r4, #16
                    adj.raw[i] = work & 0xFF;
     482:	54c4      	strb	r4, [r0, r3]
     484:	3301      	adds	r3, #1
        return CRGB(scale,scale,scale);
#else
        CRGB adj(0,0,0);

        if(scale > 0) {
            for(uint8_t i = 0; i < 3; i++) {
     486:	2b03      	cmp	r3, #3
     488:	f101 0101 	add.w	r1, r1, #1
     48c:	d1f0      	bne.n	470 <_ZN14CLEDController13getAdjustmentEh+0xc>
            }
        }

        return adj;
#endif
    }
     48e:	bd30      	pop	{r4, r5, pc}

00000490 <_ZN8CFastLED7addLedsEP14CLEDControllerP4CRGBii>:
	m_Scale = 255;
}

CLEDController &CFastLED::addLeds(CLEDController *pLed,
									   struct CRGB *data,
									   int nLedsOrOffset, int nLedsIfOffset) {
     490:	b5f8      	push	{r3, r4, r5, r6, r7, lr}
	int nOffset = (nLedsIfOffset > 0) ? nLedsOrOffset : 0;
     492:	1e1e      	subs	r6, r3, #0
	m_Scale = 255;
}

CLEDController &CFastLED::addLeds(CLEDController *pLed,
									   struct CRGB *data,
									   int nLedsOrOffset, int nLedsIfOffset) {
     494:	4615      	mov	r5, r2
	int nOffset = (nLedsIfOffset > 0) ? nLedsOrOffset : 0;
	int nLeds = (nLedsIfOffset > 0) ? nLedsIfOffset : nLedsOrOffset;

	pLed->init();
     496:	6803      	ldr	r3, [r0, #0]
}

CLEDController &CFastLED::addLeds(CLEDController *pLed,
									   struct CRGB *data,
									   int nLedsOrOffset, int nLedsIfOffset) {
	int nOffset = (nLedsIfOffset > 0) ? nLedsOrOffset : 0;
     498:	bfd8      	it	le
     49a:	2500      	movle	r5, #0
	m_Scale = 255;
}

CLEDController &CFastLED::addLeds(CLEDController *pLed,
									   struct CRGB *data,
									   int nLedsOrOffset, int nLedsIfOffset) {
     49c:	4604      	mov	r4, r0
     49e:	460f      	mov	r7, r1
	int nOffset = (nLedsIfOffset > 0) ? nLedsOrOffset : 0;
	int nLeds = (nLedsIfOffset > 0) ? nLedsIfOffset : nLedsOrOffset;

	pLed->init();
	pLed->setLeds(data + nOffset, nLeds);
     4a0:	eb05 0545 	add.w	r5, r5, r5, lsl #1

CLEDController &CFastLED::addLeds(CLEDController *pLed,
									   struct CRGB *data,
									   int nLedsOrOffset, int nLedsIfOffset) {
	int nOffset = (nLedsIfOffset > 0) ? nLedsOrOffset : 0;
	int nLeds = (nLedsIfOffset > 0) ? nLedsIfOffset : nLedsOrOffset;
     4a4:	bfd8      	it	le
     4a6:	4616      	movle	r6, r2

	pLed->init();
     4a8:	689b      	ldr	r3, [r3, #8]
	pLed->setLeds(data + nOffset, nLeds);
     4aa:	442f      	add	r7, r5
									   struct CRGB *data,
									   int nLedsOrOffset, int nLedsIfOffset) {
	int nOffset = (nLedsIfOffset > 0) ? nLedsOrOffset : 0;
	int nLeds = (nLedsIfOffset > 0) ? nLedsIfOffset : nLedsOrOffset;

	pLed->init();
     4ac:	4798      	blx	r3
        show(data, nLeds, getAdjustment(brightness))
    }
#endif

    CLEDController & setLeds(CRGB *data, int nLeds) {
        m_Data = data;
     4ae:	6067      	str	r7, [r4, #4]
        m_nLeds = nLeds;
     4b0:	6166      	str	r6, [r4, #20]
	pLed->setLeds(data + nOffset, nLeds);
	return *pLed;
}
     4b2:	4620      	mov	r0, r4
     4b4:	bdf8      	pop	{r3, r4, r5, r6, r7, pc}
     4b6:	ffff 4b0c 	vtbl.8	d20, {d15-d18}, d12

000004b8 <_ZN8CFastLED4showEh>:
    void showColor(const struct CRGB & data, uint8_t brightness=255) {
        showColor(data, m_nLeds, getAdjustment(brightness));
    }

    // navigating the list of controllers
    static CLEDController *head() { return m_pHead; }
     4b8:	4b0c      	ldr	r3, [pc, #48]	; (4ec <_ZN8CFastLED4showEh+0x34>)

void CFastLED::show(uint8_t scale) {
     4ba:	e92d 41f3 	stmdb	sp!, {r0, r1, r4, r5, r6, r7, r8, lr}
     4be:	681c      	ldr	r4, [r3, #0]
     4c0:	460e      	mov	r6, r1
	CLEDController *pCur = CLEDController::head();
	while(pCur) {
     4c2:	b184      	cbz	r4, 4e6 <_ZN8CFastLED4showEh+0x2e>
        showColor(data, nLeds, getAdjustment(brightness));
    }

    // show function using the "attached to this controller" led data
    void showLeds(uint8_t brightness=255) {
        show(m_Data, m_nLeds, getAdjustment(brightness));
     4c4:	6823      	ldr	r3, [r4, #0]
     4c6:	f8d4 8004 	ldr.w	r8, [r4, #4]
     4ca:	6967      	ldr	r7, [r4, #20]
     4cc:	685d      	ldr	r5, [r3, #4]
     4ce:	4621      	mov	r1, r4
     4d0:	a801      	add	r0, sp, #4
     4d2:	4632      	mov	r2, r6
     4d4:	f7ff ffc6 	bl	464 <_ZN14CLEDController13getAdjustmentEh>
     4d8:	4620      	mov	r0, r4
     4da:	4641      	mov	r1, r8
     4dc:	463a      	mov	r2, r7
     4de:	ab01      	add	r3, sp, #4
     4e0:	47a8      	blx	r5
	pLed->setLeds(data + nOffset, nLeds);
	return *pLed;
}

void CFastLED::show(uint8_t scale) {
	CLEDController *pCur = CLEDController::head();
     4e2:	68a4      	ldr	r4, [r4, #8]
     4e4:	e7ed      	b.n	4c2 <_ZN8CFastLED4showEh+0xa>
	while(pCur) {
		pCur->showLeds(scale);
		pCur = pCur->next();
	}
}
     4e6:	b002      	add	sp, #8
     4e8:	e8bd 81f0 	ldmia.w	sp!, {r4, r5, r6, r7, r8, pc}
     4ec:	1fff8d60 	.word	0x1fff8d60

000004f0 <_GLOBAL__sub_I_LEDS>:
// uint32_t CRGB::Squant = ((uint32_t)((__TIME__[4]-'0') * 28))<<16 | ((__TIME__[6]-'0')*50)<<8 | ((__TIME__[7]-'0')*28);

CFastLED::CFastLED() {
	// clear out the array of led controllers
	// m_nControllers = 0;
	m_Scale = 255;
     4f0:	4b01      	ldr	r3, [pc, #4]	; (4f8 <_GLOBAL__sub_I_LEDS+0x8>)
     4f2:	22ff      	movs	r2, #255	; 0xff
     4f4:	701a      	strb	r2, [r3, #0]
     4f6:	4770      	bx	lr
     4f8:	1fff8d5c 	.word	0x1fff8d5c

000004fc <_ZL15nscale8x3_videoRhS_S_h>:
#endif
}


LIB8STATIC void nscale8x3_video( uint8_t& r, uint8_t& g, uint8_t& b, fract8 scale)
{
     4fc:	b530      	push	{r4, r5, lr}
#if SCALE8_C == 1
    uint8_t nonzeroscale = (scale != 0) ? 1 : 0;
    r = (r == 0) ? 0 : (((int)r * (int)(scale) ) >> 8) + nonzeroscale;
     4fe:	7805      	ldrb	r5, [r0, #0]


LIB8STATIC void nscale8x3_video( uint8_t& r, uint8_t& g, uint8_t& b, fract8 scale)
{
#if SCALE8_C == 1
    uint8_t nonzeroscale = (scale != 0) ? 1 : 0;
     500:	1c1c      	adds	r4, r3, #0
     502:	bf18      	it	ne
     504:	2401      	movne	r4, #1
    r = (r == 0) ? 0 : (((int)r * (int)(scale) ) >> 8) + nonzeroscale;
     506:	b125      	cbz	r5, 512 <_ZL15nscale8x3_videoRhS_S_h+0x16>
     508:	fb15 f503 	smulbb	r5, r5, r3
     50c:	eb04 2515 	add.w	r5, r4, r5, lsr #8
     510:	b2ed      	uxtb	r5, r5
     512:	7005      	strb	r5, [r0, #0]
    g = (g == 0) ? 0 : (((int)g * (int)(scale) ) >> 8) + nonzeroscale;
     514:	7808      	ldrb	r0, [r1, #0]
     516:	b120      	cbz	r0, 522 <_ZL15nscale8x3_videoRhS_S_h+0x26>
     518:	fb10 f003 	smulbb	r0, r0, r3
     51c:	eb04 2010 	add.w	r0, r4, r0, lsr #8
     520:	b2c0      	uxtb	r0, r0
     522:	7008      	strb	r0, [r1, #0]
    b = (b == 0) ? 0 : (((int)b * (int)(scale) ) >> 8) + nonzeroscale;
     524:	7811      	ldrb	r1, [r2, #0]
     526:	b121      	cbz	r1, 532 <_ZL15nscale8x3_videoRhS_S_h+0x36>
     528:	fb11 f103 	smulbb	r1, r1, r3
     52c:	eb04 2111 	add.w	r1, r4, r1, lsr #8
     530:	b2c9      	uxtb	r1, r1
     532:	7011      	strb	r1, [r2, #0]
     534:	bd30      	pop	{r4, r5, pc}

00000536 <_Z15hsv2rgb_rainbowRK4CHSVR4CRGB>:
#define K255 255
#define K171 171
#define K85  85

void hsv2rgb_rainbow( const CHSV& hsv, CRGB& rgb)
{
     536:	e92d 43f7 	stmdb	sp!, {r0, r1, r2, r4, r5, r6, r7, r8, r9, lr}
    // Gscale: what to scale green down by.
    // Depends GREATLY on your particular LEDs
    const uint8_t Gscale = 0;

    
    uint8_t hue = hsv.hue;
     53a:	7807      	ldrb	r7, [r0, #0]
    uint8_t sat = hsv.sat;
     53c:	f890 9001 	ldrb.w	r9, [r0, #1]
    uint8_t val = hsv.val;
     540:	7884      	ldrb	r4, [r0, #2]
        
    uint8_t offset = hue & 0x1F; // 0..31
     542:	f007 051f 	and.w	r5, r7, #31
#define K255 255
#define K171 171
#define K85  85

void hsv2rgb_rainbow( const CHSV& hsv, CRGB& rgb)
{
     546:	4688      	mov	r8, r1
    uint8_t offset = hue & 0x1F; // 0..31
    
    // offset8 = offset * 8
    uint8_t offset8 = offset;
    {
        offset8 <<= 1;
     548:	006d      	lsls	r5, r5, #1
        asm volatile("");
        offset8 <<= 1;
     54a:	006d      	lsls	r5, r5, #1
        asm volatile("");
        offset8 <<= 1;
     54c:	006d      	lsls	r5, r5, #1
//         4 clocks AVR, 2 clocks ARM
LIB8STATIC uint8_t scale8( uint8_t i, fract8 scale)
{
#if SCALE8_C == 1
    return
    ((int)i * (int)(scale) ) >> 8;
     54e:	eb05 0285 	add.w	r2, r5, r5, lsl #2
     552:	eb02 1202 	add.w	r2, r2, r2, lsl #4
     556:	f007 0640 	and.w	r6, r7, #64	; 0x40
    
    uint8_t third = scale8( offset8, (256 / 3));
        
    uint8_t r, g, b;
    
    if( ! (hue & 0x80) ) {
     55a:	f017 0f80 	tst.w	r7, #128	; 0x80
     55e:	f3c2 2207 	ubfx	r2, r2, #8, #8
     562:	f007 0020 	and.w	r0, r7, #32
        // 0XX
        if( ! (hue & 0x40) ) {
     566:	f006 03ff 	and.w	r3, r6, #255	; 0xff
    
    uint8_t third = scale8( offset8, (256 / 3));
        
    uint8_t r, g, b;
    
    if( ! (hue & 0x80) ) {
     56a:	d128      	bne.n	5be <_Z15hsv2rgb_rainbowRK4CHSVR4CRGB+0x88>
        // 0XX
        if( ! (hue & 0x40) ) {
     56c:	b97e      	cbnz	r6, 58e <_Z15hsv2rgb_rainbowRK4CHSVR4CRGB+0x58>
            // 00X
            //section 0-1
            if( ! (hue & 0x20) ) {
     56e:	f000 01ff 	and.w	r1, r0, #255	; 0xff
     572:	b938      	cbnz	r0, 584 <_Z15hsv2rgb_rainbowRK4CHSVR4CRGB+0x4e>
                // 000
                //case 0: // R -> O
                r = K255 - third;
     574:	43d3      	mvns	r3, r2
     576:	f88d 3005 	strb.w	r3, [sp, #5]
                g = third;
     57a:	f88d 2006 	strb.w	r2, [sp, #6]
                b = 0;
     57e:	f88d 1007 	strb.w	r1, [sp, #7]
                FORCE_REFERENCE(b);
     582:	e04b      	b.n	61c <_Z15hsv2rgb_rainbowRK4CHSVR4CRGB+0xe6>
            } else {
                // 001
                //case 1: // O -> Y
                if( Y1 ) {
                    r = K171;
     584:	21ab      	movs	r1, #171	; 0xab
     586:	f88d 1005 	strb.w	r1, [sp, #5]
                    g = K85 + third ;
     58a:	3255      	adds	r2, #85	; 0x55
     58c:	e00b      	b.n	5a6 <_Z15hsv2rgb_rainbowRK4CHSVR4CRGB+0x70>
                }
            }
        } else {
            //01X
            // section 2-3
            if( !  (hue & 0x20) ) {
     58e:	f000 03ff 	and.w	r3, r0, #255	; 0xff
     592:	b968      	cbnz	r0, 5b0 <_Z15hsv2rgb_rainbowRK4CHSVR4CRGB+0x7a>
     594:	21aa      	movs	r1, #170	; 0xaa
     596:	fb15 f501 	smulbb	r5, r5, r1
     59a:	122d      	asrs	r5, r5, #8
                // 010
                //case 2: // Y -> G
                if( Y1 ) {
                    //uint8_t twothirds = (third << 1);
                    uint8_t twothirds = scale8( offset8, ((256 * 2) / 3));
                    r = K171 - twothirds;
     59c:	f1c5 05ab 	rsb	r5, r5, #171	; 0xab
     5a0:	f88d 5005 	strb.w	r5, [sp, #5]
                    g = K171 + third;
     5a4:	3a55      	subs	r2, #85	; 0x55
     5a6:	f88d 2006 	strb.w	r2, [sp, #6]
                    b = 0;
     5aa:	f88d 3007 	strb.w	r3, [sp, #7]
                    FORCE_REFERENCE(b);
     5ae:	e035      	b.n	61c <_Z15hsv2rgb_rainbowRK4CHSVR4CRGB+0xe6>
                    FORCE_REFERENCE(b);
                }
            } else {
                // 011
                // case 3: // G -> A
                r = 0;
     5b0:	2300      	movs	r3, #0
     5b2:	f88d 3005 	strb.w	r3, [sp, #5]
                FORCE_REFERENCE(r);
                g = K255 - third;
     5b6:	43d3      	mvns	r3, r2
     5b8:	f88d 3006 	strb.w	r3, [sp, #6]
     5bc:	e02c      	b.n	618 <_Z15hsv2rgb_rainbowRK4CHSVR4CRGB+0xe2>
            }
        }
    } else {
        // section 4-7
        // 1XX
        if( ! (hue & 0x40) ) {
     5be:	b9b6      	cbnz	r6, 5ee <_Z15hsv2rgb_rainbowRK4CHSVR4CRGB+0xb8>
            // 10X
            if( ! ( hue & 0x20) ) {
     5c0:	f000 01ff 	and.w	r1, r0, #255	; 0xff
     5c4:	b968      	cbnz	r0, 5e2 <_Z15hsv2rgb_rainbowRK4CHSVR4CRGB+0xac>
                // 100
                //case 4: // A -> B
                r = 0;
     5c6:	f88d 1005 	strb.w	r1, [sp, #5]
     5ca:	23aa      	movs	r3, #170	; 0xaa
     5cc:	fb15 f503 	smulbb	r5, r5, r3
     5d0:	0a2d      	lsrs	r5, r5, #8
                FORCE_REFERENCE(r);
                //uint8_t twothirds = (third << 1);
                uint8_t twothirds = scale8( offset8, ((256 * 2) / 3));
                g = K171 - twothirds;
     5d2:	f1c5 03ab 	rsb	r3, r5, #171	; 0xab
                b = K85  + twothirds;
     5d6:	3555      	adds	r5, #85	; 0x55
                //case 4: // A -> B
                r = 0;
                FORCE_REFERENCE(r);
                //uint8_t twothirds = (third << 1);
                uint8_t twothirds = scale8( offset8, ((256 * 2) / 3));
                g = K171 - twothirds;
     5d8:	f88d 3006 	strb.w	r3, [sp, #6]
                b = K85  + twothirds;
     5dc:	f88d 5007 	strb.w	r5, [sp, #7]
     5e0:	e01c      	b.n	61c <_Z15hsv2rgb_rainbowRK4CHSVR4CRGB+0xe6>

            } else {
                // 101
                //case 5: // B -> P
                r = third;
     5e2:	f88d 2005 	strb.w	r2, [sp, #5]
                g = 0;
     5e6:	f88d 3006 	strb.w	r3, [sp, #6]
                FORCE_REFERENCE(g);
                b = K255 - third;
     5ea:	43d2      	mvns	r2, r2
     5ec:	e014      	b.n	618 <_Z15hsv2rgb_rainbowRK4CHSVR4CRGB+0xe2>

            }
        } else {
            if( !  (hue & 0x20)  ) {
     5ee:	f000 03ff 	and.w	r3, r0, #255	; 0xff
     5f2:	b940      	cbnz	r0, 606 <_Z15hsv2rgb_rainbowRK4CHSVR4CRGB+0xd0>
                // 110
                //case 6: // P -- K
                r = K85 + third;
     5f4:	f102 0155 	add.w	r1, r2, #85	; 0x55
     5f8:	f88d 1005 	strb.w	r1, [sp, #5]
                g = 0;
     5fc:	f88d 3006 	strb.w	r3, [sp, #6]
                FORCE_REFERENCE(g);
                b = K171 - third;
     600:	f1c2 02ab 	rsb	r2, r2, #171	; 0xab
     604:	e008      	b.n	618 <_Z15hsv2rgb_rainbowRK4CHSVR4CRGB+0xe2>

            } else {
                // 111
                //case 7: // K -> R
                r = K171 + third;
     606:	f1a2 0355 	sub.w	r3, r2, #85	; 0x55
     60a:	f88d 3005 	strb.w	r3, [sp, #5]
                g = 0;
     60e:	2300      	movs	r3, #0
     610:	f88d 3006 	strb.w	r3, [sp, #6]
                FORCE_REFERENCE(g);
                b = K85 - third;
     614:	f1c2 0255 	rsb	r2, r2, #85	; 0x55
     618:	f88d 2007 	strb.w	r2, [sp, #7]
    if( G2 ) g = g >> 1;
    if( Gscale ) g = scale8_video_LEAVING_R1_DIRTY( g, Gscale);
    
    // Scale down colors if we're desaturated at all
    // and add the brightness_floor to r, g, and b.
    if( sat != 255 ) {
     61c:	f1b9 0fff 	cmp.w	r9, #255	; 0xff
     620:	d01f      	beq.n	662 <_Z15hsv2rgb_rainbowRK4CHSVR4CRGB+0x12c>

        nscale8x3_video( r, g, b, sat);
     622:	464b      	mov	r3, r9

        uint8_t desat = 255 - sat;
     624:	ea6f 0909 	mvn.w	r9, r9
    
    // Scale down colors if we're desaturated at all
    // and add the brightness_floor to r, g, and b.
    if( sat != 255 ) {

        nscale8x3_video( r, g, b, sat);
     628:	f10d 0005 	add.w	r0, sp, #5
     62c:	f10d 0106 	add.w	r1, sp, #6
     630:	f10d 0207 	add.w	r2, sp, #7

        uint8_t desat = 255 - sat;
     634:	fa5f f989 	uxtb.w	r9, r9
    
    // Scale down colors if we're desaturated at all
    // and add the brightness_floor to r, g, and b.
    if( sat != 255 ) {

        nscale8x3_video( r, g, b, sat);
     638:	f7ff ff60 	bl	4fc <_ZL15nscale8x3_videoRhS_S_h>
     63c:	fb19 f909 	smulbb	r9, r9, r9

        uint8_t desat = 255 - sat;
        desat = scale8( desat, desat);
        
        uint8_t brightness_floor = desat;
        r += brightness_floor;
     640:	f89d 3005 	ldrb.w	r3, [sp, #5]
     644:	ea4f 2919 	mov.w	r9, r9, lsr #8
     648:	444b      	add	r3, r9
     64a:	f88d 3005 	strb.w	r3, [sp, #5]
        g += brightness_floor;
     64e:	f89d 3006 	ldrb.w	r3, [sp, #6]
     652:	444b      	add	r3, r9
     654:	f88d 3006 	strb.w	r3, [sp, #6]
        b += brightness_floor;
     658:	f89d 3007 	ldrb.w	r3, [sp, #7]
     65c:	4499      	add	r9, r3
     65e:	f88d 9007 	strb.w	r9, [sp, #7]
    }

    // Now scale everything down if we're at value < 255.
    if( val != 255 ) {
     662:	2cff      	cmp	r4, #255	; 0xff
     664:	d00f      	beq.n	686 <_Z15hsv2rgb_rainbowRK4CHSVR4CRGB+0x150>


LIB8STATIC uint8_t scale8_video_LEAVING_R1_DIRTY( uint8_t i, fract8 scale)
{
#if SCALE8_C == 1 || defined(LIB8_ATTINY)
    uint8_t j = (((int)i * (int)scale) >> 8) + ((i&&scale)?1:0);
     666:	fb14 f304 	smulbb	r3, r4, r4
     66a:	3400      	adds	r4, #0
     66c:	bf18      	it	ne
     66e:	2401      	movne	r4, #1
     670:	eb04 2313 	add.w	r3, r4, r3, lsr #8
        
        val = scale8_video_LEAVING_R1_DIRTY( val, val);
        nscale8x3_video( r, g, b, val);
     674:	f10d 0005 	add.w	r0, sp, #5
     678:	f10d 0106 	add.w	r1, sp, #6
     67c:	f10d 0207 	add.w	r2, sp, #7
     680:	b2db      	uxtb	r3, r3
     682:	f7ff ff3b 	bl	4fc <_ZL15nscale8x3_videoRhS_S_h>
    // It turns out that fixing it winds up costing more than
    // not fixing it.
    // To paraphrase Dr Bronner, profile! profile! profile!
    //asm volatile(  ""  :  :  : "r26", "r27" );
    //asm volatile (" movw r30, r26 \n" : : : "r30", "r31");
    rgb.r = r;
     686:	f89d 3005 	ldrb.w	r3, [sp, #5]
     68a:	f888 3000 	strb.w	r3, [r8]
    rgb.g = g;
     68e:	f89d 3006 	ldrb.w	r3, [sp, #6]
     692:	f888 3001 	strb.w	r3, [r8, #1]
    rgb.b = b;
     696:	f89d 3007 	ldrb.w	r3, [sp, #7]
     69a:	f888 3002 	strb.w	r3, [r8, #2]
}
     69e:	b003      	add	sp, #12
     6a0:	e8bd 83f0 	ldmia.w	sp!, {r4, r5, r6, r7, r8, r9, pc}

000006a4 <_ZN7PerlinsD1Ev>:
};

Perlins::Perlins() {
}

Perlins::~Perlins() {
     6a4:	4b01      	ldr	r3, [pc, #4]	; (6ac <_ZN7PerlinsD1Ev+0x8>)
     6a6:	6003      	str	r3, [r0, #0]
}
     6a8:	4770      	bx	lr
     6aa:	bf00      	nop
     6ac:	000129d0 	.word	0x000129d0

000006b0 <_ZN7PerlinsD0Ev>:
};

Perlins::Perlins() {
}

Perlins::~Perlins() {
     6b0:	b510      	push	{r4, lr}
     6b2:	4b03      	ldr	r3, [pc, #12]	; (6c0 <_ZN7PerlinsD0Ev+0x10>)
     6b4:	6003      	str	r3, [r0, #0]
     6b6:	4604      	mov	r4, r0
}
     6b8:	f003 fe3a 	bl	4330 <_ZdlPv>
     6bc:	4620      	mov	r0, r4
     6be:	bd10      	pop	{r4, pc}
     6c0:	000129d0 	.word	0x000129d0

000006c4 <_ZN7PerlinsC1Ev>:
49,192,214, 31,181,199,106,157,184, 84,204,176,115,121,50,45,127, 4,
150,254,138,236,205, 93,222,114, 67,29,24, 72,243,141,128,195,78,66,
215,61,156,180
};

Perlins::Perlins() {
     6c4:	4b01      	ldr	r3, [pc, #4]	; (6cc <_ZN7PerlinsC1Ev+0x8>)
     6c6:	6003      	str	r3, [r0, #0]
}
     6c8:	4770      	bx	lr
     6ca:	bf00      	nop
     6cc:	000129d0 	.word	0x000129d0

000006d0 <_ZN7Perlins4fadeEd>:
                     grad(P(BA+1), x-1, y, z-1)),          /* OF CUBE */
                  lerp(u, grad(P(AB+1), x, y-1, z-1),
                       grad(P(BB+1), x-1, y-1, z-1))));
}

double Perlins::fade(double t){ return t * t * t * (t * (t * 6 - 15) + 10); }
     6d0:	b5f8      	push	{r3, r4, r5, r6, r7, lr}
     6d2:	4610      	mov	r0, r2
     6d4:	4614      	mov	r4, r2
     6d6:	461d      	mov	r5, r3
     6d8:	4619      	mov	r1, r3
     6da:	f00b fd83 	bl	c1e4 <__aeabi_dmul>
     6de:	4622      	mov	r2, r4
     6e0:	462b      	mov	r3, r5
     6e2:	f00b fd7f 	bl	c1e4 <__aeabi_dmul>
     6e6:	2200      	movs	r2, #0
     6e8:	4606      	mov	r6, r0
     6ea:	460f      	mov	r7, r1
     6ec:	4620      	mov	r0, r4
     6ee:	4629      	mov	r1, r5
     6f0:	4b0b      	ldr	r3, [pc, #44]	; (720 <_ZN7Perlins4fadeEd+0x50>)
     6f2:	f00b fd77 	bl	c1e4 <__aeabi_dmul>
     6f6:	2200      	movs	r2, #0
     6f8:	4b0a      	ldr	r3, [pc, #40]	; (724 <_ZN7Perlins4fadeEd+0x54>)
     6fa:	f00b fbbf 	bl	be7c <__aeabi_dsub>
     6fe:	4602      	mov	r2, r0
     700:	460b      	mov	r3, r1
     702:	4620      	mov	r0, r4
     704:	4629      	mov	r1, r5
     706:	f00b fd6d 	bl	c1e4 <__aeabi_dmul>
     70a:	2200      	movs	r2, #0
     70c:	4b06      	ldr	r3, [pc, #24]	; (728 <_ZN7Perlins4fadeEd+0x58>)
     70e:	f00b fbb7 	bl	be80 <__adddf3>
     712:	4602      	mov	r2, r0
     714:	460b      	mov	r3, r1
     716:	4630      	mov	r0, r6
     718:	4639      	mov	r1, r7
     71a:	f00b fd63 	bl	c1e4 <__aeabi_dmul>
     71e:	bdf8      	pop	{r3, r4, r5, r6, r7, pc}
     720:	40180000 	.word	0x40180000
     724:	402e0000 	.word	0x402e0000
     728:	40240000 	.word	0x40240000

0000072c <_ZN7Perlins4gradEiddd>:
double Perlins::lerp(double t, double a, double b){ return a + t * (b - a); }
double Perlins::grad(int hash, double x, double y, double z)
{
     72c:	b5f8      	push	{r3, r4, r5, r6, r7, lr}
     72e:	468e      	mov	lr, r1
    int     h = hash & 15;          /* CONVERT LO 4 BITS OF HASH CODE */
     730:	f001 010f 	and.w	r1, r1, #15
    double  u = h < 8 ? x : y,      /* INTO 12 GRADIENT DIRECTIONS.   */
     734:	2907      	cmp	r1, #7
}

double Perlins::fade(double t){ return t * t * t * (t * (t * 6 - 15) + 10); }
double Perlins::lerp(double t, double a, double b){ return a + t * (b - a); }
double Perlins::grad(int hash, double x, double y, double z)
{
     736:	e9dd 4506 	ldrd	r4, r5, [sp, #24]
    int     h = hash & 15;          /* CONVERT LO 4 BITS OF HASH CODE */
    double  u = h < 8 ? x : y,      /* INTO 12 GRADIENT DIRECTIONS.   */
     73a:	dc04      	bgt.n	746 <_ZN7Perlins4gradEiddd+0x1a>
    		v = h < 4 ? y : h==12||h==14 ? x : z;
     73c:	2903      	cmp	r1, #3
double Perlins::fade(double t){ return t * t * t * (t * (t * 6 - 15) + 10); }
double Perlins::lerp(double t, double a, double b){ return a + t * (b - a); }
double Perlins::grad(int hash, double x, double y, double z)
{
    int     h = hash & 15;          /* CONVERT LO 4 BITS OF HASH CODE */
    double  u = h < 8 ? x : y,      /* INTO 12 GRADIENT DIRECTIONS.   */
     73e:	4616      	mov	r6, r2
     740:	461f      	mov	r7, r3
    		v = h < 4 ? y : h==12||h==14 ? x : z;
     742:	dd0b      	ble.n	75c <_ZN7Perlins4gradEiddd+0x30>
     744:	e001      	b.n	74a <_ZN7Perlins4gradEiddd+0x1e>
double Perlins::fade(double t){ return t * t * t * (t * (t * 6 - 15) + 10); }
double Perlins::lerp(double t, double a, double b){ return a + t * (b - a); }
double Perlins::grad(int hash, double x, double y, double z)
{
    int     h = hash & 15;          /* CONVERT LO 4 BITS OF HASH CODE */
    double  u = h < 8 ? x : y,      /* INTO 12 GRADIENT DIRECTIONS.   */
     746:	4626      	mov	r6, r4
     748:	462f      	mov	r7, r5
    		v = h < 4 ? y : h==12||h==14 ? x : z;
     74a:	f00e 010d 	and.w	r1, lr, #13
     74e:	290c      	cmp	r1, #12
     750:	d002      	beq.n	758 <_ZN7Perlins4gradEiddd+0x2c>
     752:	e9dd 4508 	ldrd	r4, r5, [sp, #32]
     756:	e001      	b.n	75c <_ZN7Perlins4gradEiddd+0x30>
     758:	4614      	mov	r4, r2
     75a:	461d      	mov	r5, r3
    return ((h&1) == 0 ? u : -u) + ((h&2) == 0 ? v : -v);
     75c:	f01e 0f01 	tst.w	lr, #1
     760:	bf14      	ite	ne
     762:	f107 4100 	addne.w	r1, r7, #2147483648	; 0x80000000
     766:	4639      	moveq	r1, r7
     768:	f01e 0f02 	tst.w	lr, #2
     76c:	4630      	mov	r0, r6
     76e:	4622      	mov	r2, r4
     770:	bf14      	ite	ne
     772:	f105 4300 	addne.w	r3, r5, #2147483648	; 0x80000000
     776:	462b      	moveq	r3, r5
     778:	f00b fb82 	bl	be80 <__adddf3>
}
     77c:	bdf8      	pop	{r3, r4, r5, r6, r7, pc}
     77e:	ffff e92d 	vtbl.8	d30, {d15-d16}, d29

00000780 <_ZN7Perlins6pnoiseEddd>:

Perlins::~Perlins() {
}

double Perlins::pnoise(double x, double y, double z)
{
     780:	e92d 4ff0 	stmdb	sp!, {r4, r5, r6, r7, r8, r9, sl, fp, lr}
    int   X = (int)floor(x) & 255,             /* FIND UNIT CUBE THAT */
     784:	4619      	mov	r1, r3

Perlins::~Perlins() {
}

double Perlins::pnoise(double x, double y, double z)
{
     786:	b099      	sub	sp, #100	; 0x64
     788:	4680      	mov	r8, r0
    int   X = (int)floor(x) & 255,             /* FIND UNIT CUBE THAT */
     78a:	4610      	mov	r0, r2

Perlins::~Perlins() {
}

double Perlins::pnoise(double x, double y, double z)
{
     78c:	4614      	mov	r4, r2
     78e:	461d      	mov	r5, r3
    int   X = (int)floor(x) & 255,             /* FIND UNIT CUBE THAT */
     790:	f00a f9fa 	bl	ab88 <floor>
     794:	9104      	str	r1, [sp, #16]
     796:	9005      	str	r0, [sp, #20]
     798:	f00b ffbe 	bl	c718 <__aeabi_d2iz>
     79c:	fa5f fb80 	uxtb.w	fp, r0
          Y = (int)floor(y) & 255,             /* CONTAINS POINT.     */
     7a0:	e9dd 0122 	ldrd	r0, r1, [sp, #136]	; 0x88
     7a4:	f00a f9f0 	bl	ab88 <floor>
     7a8:	e9cd 010c 	strd	r0, r1, [sp, #48]	; 0x30
     7ac:	f00b ffb4 	bl	c718 <__aeabi_d2iz>
     7b0:	fa5f fa80 	uxtb.w	sl, r0
          Z = (int)floor(z) & 255;
     7b4:	e9dd 0124 	ldrd	r0, r1, [sp, #144]	; 0x90
     7b8:	f00a f9e6 	bl	ab88 <floor>
     7bc:	460f      	mov	r7, r1
     7be:	4606      	mov	r6, r0
     7c0:	f00b ffaa 	bl	c718 <__aeabi_d2iz>
    x -= floor(x);                             /* FIND RELATIVE X,Y,Z */
     7c4:	9a05      	ldr	r2, [sp, #20]
     7c6:	9b04      	ldr	r3, [sp, #16]

double Perlins::pnoise(double x, double y, double z)
{
    int   X = (int)floor(x) & 255,             /* FIND UNIT CUBE THAT */
          Y = (int)floor(y) & 255,             /* CONTAINS POINT.     */
          Z = (int)floor(z) & 255;
     7c8:	fa5f f980 	uxtb.w	r9, r0
    x -= floor(x);                             /* FIND RELATIVE X,Y,Z */
     7cc:	4629      	mov	r1, r5
     7ce:	4620      	mov	r0, r4
     7d0:	f00b fb54 	bl	be7c <__aeabi_dsub>
    y -= floor(y);                             /* OF POINT IN CUBE.   */
     7d4:	e9dd 230c 	ldrd	r2, r3, [sp, #48]	; 0x30
double Perlins::pnoise(double x, double y, double z)
{
    int   X = (int)floor(x) & 255,             /* FIND UNIT CUBE THAT */
          Y = (int)floor(y) & 255,             /* CONTAINS POINT.     */
          Z = (int)floor(z) & 255;
    x -= floor(x);                             /* FIND RELATIVE X,Y,Z */
     7d8:	e9cd 010a 	strd	r0, r1, [sp, #40]	; 0x28
    y -= floor(y);                             /* OF POINT IN CUBE.   */
     7dc:	e9dd 0122 	ldrd	r0, r1, [sp, #136]	; 0x88
     7e0:	f00b fb4c 	bl	be7c <__aeabi_dsub>
    z -= floor(z);
     7e4:	4632      	mov	r2, r6
{
    int   X = (int)floor(x) & 255,             /* FIND UNIT CUBE THAT */
          Y = (int)floor(y) & 255,             /* CONTAINS POINT.     */
          Z = (int)floor(z) & 255;
    x -= floor(x);                             /* FIND RELATIVE X,Y,Z */
    y -= floor(y);                             /* OF POINT IN CUBE.   */
     7e6:	e9cd 0106 	strd	r0, r1, [sp, #24]
    z -= floor(z);
     7ea:	463b      	mov	r3, r7
     7ec:	e9dd 0124 	ldrd	r0, r1, [sp, #144]	; 0x90
     7f0:	f00b fb44 	bl	be7c <__aeabi_dsub>

    double  u = fade(x),                       /* COMPUTE FADE CURVES */
     7f4:	e9dd 230a 	ldrd	r2, r3, [sp, #40]	; 0x28
    int   X = (int)floor(x) & 255,             /* FIND UNIT CUBE THAT */
          Y = (int)floor(y) & 255,             /* CONTAINS POINT.     */
          Z = (int)floor(z) & 255;
    x -= floor(x);                             /* FIND RELATIVE X,Y,Z */
    y -= floor(y);                             /* OF POINT IN CUBE.   */
    z -= floor(z);
     7f8:	e9cd 0108 	strd	r0, r1, [sp, #32]

    double  u = fade(x),                       /* COMPUTE FADE CURVES */
     7fc:	4640      	mov	r0, r8
     7fe:	f7ff ff67 	bl	6d0 <_ZN7Perlins4fadeEd>
            v = fade(y),                       /* FOR EACH OF X,Y,Z.  */
     802:	e9dd 2306 	ldrd	r2, r3, [sp, #24]
          Z = (int)floor(z) & 255;
    x -= floor(x);                             /* FIND RELATIVE X,Y,Z */
    y -= floor(y);                             /* OF POINT IN CUBE.   */
    z -= floor(z);

    double  u = fade(x),                       /* COMPUTE FADE CURVES */
     806:	e9cd 010c 	strd	r0, r1, [sp, #48]	; 0x30
            v = fade(y),                       /* FOR EACH OF X,Y,Z.  */
     80a:	4640      	mov	r0, r8
     80c:	f7ff ff60 	bl	6d0 <_ZN7Perlins4fadeEd>
            w = fade(z);

    int  A = P(X)+Y,
     810:	4c98      	ldr	r4, [pc, #608]	; (a74 <_ZN7Perlins6pnoiseEddd+0x2f4>)
    y -= floor(y);                             /* OF POINT IN CUBE.   */
    z -= floor(z);

    double  u = fade(x),                       /* COMPUTE FADE CURVES */
            v = fade(y),                       /* FOR EACH OF X,Y,Z.  */
            w = fade(z);
     812:	e9dd 2308 	ldrd	r2, r3, [sp, #32]
    x -= floor(x);                             /* FIND RELATIVE X,Y,Z */
    y -= floor(y);                             /* OF POINT IN CUBE.   */
    z -= floor(z);

    double  u = fade(x),                       /* COMPUTE FADE CURVES */
            v = fade(y),                       /* FOR EACH OF X,Y,Z.  */
     816:	e9cd 0114 	strd	r0, r1, [sp, #80]	; 0x50
            w = fade(z);
     81a:	4640      	mov	r0, r8
     81c:	f7ff ff58 	bl	6d0 <_ZN7Perlins4fadeEd>

    int  A = P(X)+Y,
     820:	f814 300b 	ldrb.w	r3, [r4, fp]
     824:	4453      	add	r3, sl
         AA = P(A)+Z,
     826:	b2da      	uxtb	r2, r3
         AB = P(A+1)+Z,                        /* HASH COORDINATES OF */
     828:	3301      	adds	r3, #1
     82a:	b2db      	uxtb	r3, r3
         B = P(X+1)+Y,
     82c:	f10b 0b01 	add.w	fp, fp, #1
            v = fade(y),                       /* FOR EACH OF X,Y,Z.  */
            w = fade(z);

    int  A = P(X)+Y,
         AA = P(A)+Z,
         AB = P(A+1)+Z,                        /* HASH COORDINATES OF */
     830:	5ce3      	ldrb	r3, [r4, r3]
    double  u = fade(x),                       /* COMPUTE FADE CURVES */
            v = fade(y),                       /* FOR EACH OF X,Y,Z.  */
            w = fade(z);

    int  A = P(X)+Y,
         AA = P(A)+Z,
     832:	5ca7      	ldrb	r7, [r4, r2]
         AB = P(A+1)+Z,                        /* HASH COORDINATES OF */
         B = P(X+1)+Y,
     834:	fa5f fb8b 	uxtb.w	fp, fp
            v = fade(y),                       /* FOR EACH OF X,Y,Z.  */
            w = fade(z);

    int  A = P(X)+Y,
         AA = P(A)+Z,
         AB = P(A+1)+Z,                        /* HASH COORDINATES OF */
     838:	eb03 0509 	add.w	r5, r3, r9
         B = P(X+1)+Y,
     83c:	f814 300b 	ldrb.w	r3, [r4, fp]
     840:	449a      	add	sl, r3
         BA = P(B)+Z,
     842:	fa5f f38a 	uxtb.w	r3, sl
         BB = P(B+1)+Z;                        /* THE 8 CUBE CORNERS, */
     846:	f10a 0a01 	add.w	sl, sl, #1
     84a:	fa5f fa8a 	uxtb.w	sl, sl

    int  A = P(X)+Y,
         AA = P(A)+Z,
         AB = P(A+1)+Z,                        /* HASH COORDINATES OF */
         B = P(X+1)+Y,
         BA = P(B)+Z,
     84e:	5ce6      	ldrb	r6, [r4, r3]
         BB = P(B+1)+Z;                        /* THE 8 CUBE CORNERS, */
     850:	f814 300a 	ldrb.w	r3, [r4, sl]
    double  u = fade(x),                       /* COMPUTE FADE CURVES */
            v = fade(y),                       /* FOR EACH OF X,Y,Z.  */
            w = fade(z);

    int  A = P(X)+Y,
         AA = P(A)+Z,
     854:	444f      	add	r7, r9
         AB = P(A+1)+Z,                        /* HASH COORDINATES OF */
         B = P(X+1)+Y,
         BA = P(B)+Z,
     856:	444e      	add	r6, r9
         BB = P(B+1)+Z;                        /* THE 8 CUBE CORNERS, */
     858:	4499      	add	r9, r3

    return lerp(w,lerp(v,lerp(u, grad(P(AA  ), x, y, z),   /* AND ADD */
     85a:	b2fb      	uxtb	r3, r7
    y -= floor(y);                             /* OF POINT IN CUBE.   */
    z -= floor(z);

    double  u = fade(x),                       /* COMPUTE FADE CURVES */
            v = fade(y),                       /* FOR EACH OF X,Y,Z.  */
            w = fade(z);
     85c:	e9cd 0116 	strd	r0, r1, [sp, #88]	; 0x58
                  lerp(u, grad(P(AB  ), x, y-1, z),        /* RESULTS */
                       grad(P(BB  ), x-1, y-1, z))),       /* FROM  8 */
                lerp(v, lerp(u, grad(P(AA+1), x, y, z-1),  /* CORNERS */
                     grad(P(BA+1), x-1, y, z-1)),          /* OF CUBE */
                  lerp(u, grad(P(AB+1), x, y-1, z-1),
                       grad(P(BB+1), x-1, y-1, z-1))));
     860:	5ce1      	ldrb	r1, [r4, r3]
     862:	e9dd 2306 	ldrd	r2, r3, [sp, #24]
     866:	e9cd 2300 	strd	r2, r3, [sp]
     86a:	e9dd 2308 	ldrd	r2, r3, [sp, #32]
     86e:	4640      	mov	r0, r8
     870:	e9cd 2302 	strd	r2, r3, [sp, #8]
     874:	e9dd 230a 	ldrd	r2, r3, [sp, #40]	; 0x28
     878:	f7ff ff58 	bl	72c <_ZN7Perlins4gradEiddd>
     87c:	2200      	movs	r2, #0
     87e:	4682      	mov	sl, r0
     880:	468b      	mov	fp, r1
     882:	4b7d      	ldr	r3, [pc, #500]	; (a78 <_ZN7Perlins6pnoiseEddd+0x2f8>)
     884:	e9dd 010a 	ldrd	r0, r1, [sp, #40]	; 0x28
     888:	f00b faf8 	bl	be7c <__aeabi_dsub>
         B = P(X+1)+Y,
         BA = P(B)+Z,
         BB = P(B+1)+Z;                        /* THE 8 CUBE CORNERS, */

    return lerp(w,lerp(v,lerp(u, grad(P(AA  ), x, y, z),   /* AND ADD */
                              grad(P(BA  ), x-1, y, z)),   /* BLENDED */
     88c:	b2f3      	uxtb	r3, r6
                  lerp(u, grad(P(AB  ), x, y-1, z),        /* RESULTS */
                       grad(P(BB  ), x-1, y-1, z))),       /* FROM  8 */
                lerp(v, lerp(u, grad(P(AA+1), x, y, z-1),  /* CORNERS */
                     grad(P(BA+1), x-1, y, z-1)),          /* OF CUBE */
                  lerp(u, grad(P(AB+1), x, y-1, z-1),
                       grad(P(BB+1), x-1, y-1, z-1))));
     88e:	e9cd 0110 	strd	r0, r1, [sp, #64]	; 0x40
     892:	5ce1      	ldrb	r1, [r4, r3]
     894:	e9dd 2306 	ldrd	r2, r3, [sp, #24]
     898:	e9cd 2300 	strd	r2, r3, [sp]
     89c:	e9dd 2308 	ldrd	r2, r3, [sp, #32]
     8a0:	4640      	mov	r0, r8
     8a2:	e9cd 2302 	strd	r2, r3, [sp, #8]
     8a6:	e9dd 2310 	ldrd	r2, r3, [sp, #64]	; 0x40
     8aa:	f7ff ff3f 	bl	72c <_ZN7Perlins4gradEiddd>
}

double Perlins::fade(double t){ return t * t * t * (t * (t * 6 - 15) + 10); }
double Perlins::lerp(double t, double a, double b){ return a + t * (b - a); }
     8ae:	4652      	mov	r2, sl
     8b0:	465b      	mov	r3, fp
     8b2:	f00b fae3 	bl	be7c <__aeabi_dsub>
     8b6:	4602      	mov	r2, r0
     8b8:	460b      	mov	r3, r1
     8ba:	e9dd 010c 	ldrd	r0, r1, [sp, #48]	; 0x30
     8be:	f00b fc91 	bl	c1e4 <__aeabi_dmul>
     8c2:	4602      	mov	r2, r0
     8c4:	460b      	mov	r3, r1
     8c6:	4650      	mov	r0, sl
     8c8:	4659      	mov	r1, fp
     8ca:	f00b fad9 	bl	be80 <__adddf3>
                  lerp(u, grad(P(AB  ), x, y-1, z),        /* RESULTS */
                       grad(P(BB  ), x-1, y-1, z))),       /* FROM  8 */
                lerp(v, lerp(u, grad(P(AA+1), x, y, z-1),  /* CORNERS */
                     grad(P(BA+1), x-1, y, z-1)),          /* OF CUBE */
                  lerp(u, grad(P(AB+1), x, y-1, z-1),
                       grad(P(BB+1), x-1, y-1, z-1))));
     8ce:	2200      	movs	r2, #0
}

double Perlins::fade(double t){ return t * t * t * (t * (t * 6 - 15) + 10); }
double Perlins::lerp(double t, double a, double b){ return a + t * (b - a); }
     8d0:	4682      	mov	sl, r0
     8d2:	468b      	mov	fp, r1
                  lerp(u, grad(P(AB  ), x, y-1, z),        /* RESULTS */
                       grad(P(BB  ), x-1, y-1, z))),       /* FROM  8 */
                lerp(v, lerp(u, grad(P(AA+1), x, y, z-1),  /* CORNERS */
                     grad(P(BA+1), x-1, y, z-1)),          /* OF CUBE */
                  lerp(u, grad(P(AB+1), x, y-1, z-1),
                       grad(P(BB+1), x-1, y-1, z-1))));
     8d4:	4b68      	ldr	r3, [pc, #416]	; (a78 <_ZN7Perlins6pnoiseEddd+0x2f8>)
     8d6:	e9dd 0106 	ldrd	r0, r1, [sp, #24]
     8da:	f00b facf 	bl	be7c <__aeabi_dsub>
         BA = P(B)+Z,
         BB = P(B+1)+Z;                        /* THE 8 CUBE CORNERS, */

    return lerp(w,lerp(v,lerp(u, grad(P(AA  ), x, y, z),   /* AND ADD */
                              grad(P(BA  ), x-1, y, z)),   /* BLENDED */
                  lerp(u, grad(P(AB  ), x, y-1, z),        /* RESULTS */
     8de:	b2eb      	uxtb	r3, r5
                       grad(P(BB  ), x-1, y-1, z))),       /* FROM  8 */
                lerp(v, lerp(u, grad(P(AA+1), x, y, z-1),  /* CORNERS */
                     grad(P(BA+1), x-1, y, z-1)),          /* OF CUBE */
                  lerp(u, grad(P(AB+1), x, y-1, z-1),
                       grad(P(BB+1), x-1, y-1, z-1))));
     8e0:	e9cd 0112 	strd	r0, r1, [sp, #72]	; 0x48
     8e4:	5ce1      	ldrb	r1, [r4, r3]
     8e6:	e9dd 2312 	ldrd	r2, r3, [sp, #72]	; 0x48
     8ea:	e9cd 2300 	strd	r2, r3, [sp]
     8ee:	e9dd 2308 	ldrd	r2, r3, [sp, #32]
     8f2:	4640      	mov	r0, r8
     8f4:	e9cd 2302 	strd	r2, r3, [sp, #8]
     8f8:	e9dd 230a 	ldrd	r2, r3, [sp, #40]	; 0x28
     8fc:	f7ff ff16 	bl	72c <_ZN7Perlins4gradEiddd>
         BB = P(B+1)+Z;                        /* THE 8 CUBE CORNERS, */

    return lerp(w,lerp(v,lerp(u, grad(P(AA  ), x, y, z),   /* AND ADD */
                              grad(P(BA  ), x-1, y, z)),   /* BLENDED */
                  lerp(u, grad(P(AB  ), x, y-1, z),        /* RESULTS */
                       grad(P(BB  ), x-1, y-1, z))),       /* FROM  8 */
     900:	fa5f f389 	uxtb.w	r3, r9
                lerp(v, lerp(u, grad(P(AA+1), x, y, z-1),  /* CORNERS */
                     grad(P(BA+1), x-1, y, z-1)),          /* OF CUBE */
                  lerp(u, grad(P(AB+1), x, y-1, z-1),
                       grad(P(BB+1), x-1, y-1, z-1))));
     904:	e9cd 010e 	strd	r0, r1, [sp, #56]	; 0x38
     908:	5ce1      	ldrb	r1, [r4, r3]
     90a:	e9dd 2312 	ldrd	r2, r3, [sp, #72]	; 0x48
     90e:	e9cd 2300 	strd	r2, r3, [sp]
     912:	e9dd 2308 	ldrd	r2, r3, [sp, #32]
     916:	4640      	mov	r0, r8
     918:	e9cd 2302 	strd	r2, r3, [sp, #8]
     91c:	e9dd 2310 	ldrd	r2, r3, [sp, #64]	; 0x40
     920:	f7ff ff04 	bl	72c <_ZN7Perlins4gradEiddd>
}

double Perlins::fade(double t){ return t * t * t * (t * (t * 6 - 15) + 10); }
double Perlins::lerp(double t, double a, double b){ return a + t * (b - a); }
     924:	e9dd 230e 	ldrd	r2, r3, [sp, #56]	; 0x38
     928:	f00b faa8 	bl	be7c <__aeabi_dsub>
     92c:	4602      	mov	r2, r0
     92e:	460b      	mov	r3, r1
     930:	e9dd 010c 	ldrd	r0, r1, [sp, #48]	; 0x30
     934:	f00b fc56 	bl	c1e4 <__aeabi_dmul>
     938:	4602      	mov	r2, r0
     93a:	460b      	mov	r3, r1
     93c:	e9dd 010e 	ldrd	r0, r1, [sp, #56]	; 0x38
     940:	f00b fa9e 	bl	be80 <__adddf3>
     944:	4652      	mov	r2, sl
     946:	465b      	mov	r3, fp
     948:	f00b fa98 	bl	be7c <__aeabi_dsub>
     94c:	4602      	mov	r2, r0
     94e:	460b      	mov	r3, r1
     950:	e9dd 0114 	ldrd	r0, r1, [sp, #80]	; 0x50
     954:	f00b fc46 	bl	c1e4 <__aeabi_dmul>
     958:	4602      	mov	r2, r0
     95a:	460b      	mov	r3, r1
     95c:	4650      	mov	r0, sl
     95e:	4659      	mov	r1, fp
     960:	f00b fa8e 	bl	be80 <__adddf3>
                  lerp(u, grad(P(AB  ), x, y-1, z),        /* RESULTS */
                       grad(P(BB  ), x-1, y-1, z))),       /* FROM  8 */
                lerp(v, lerp(u, grad(P(AA+1), x, y, z-1),  /* CORNERS */
                     grad(P(BA+1), x-1, y, z-1)),          /* OF CUBE */
                  lerp(u, grad(P(AB+1), x, y-1, z-1),
                       grad(P(BB+1), x-1, y-1, z-1))));
     964:	2200      	movs	r2, #0
}

double Perlins::fade(double t){ return t * t * t * (t * (t * 6 - 15) + 10); }
double Perlins::lerp(double t, double a, double b){ return a + t * (b - a); }
     966:	e9cd 010e 	strd	r0, r1, [sp, #56]	; 0x38
                  lerp(u, grad(P(AB  ), x, y-1, z),        /* RESULTS */
                       grad(P(BB  ), x-1, y-1, z))),       /* FROM  8 */
                lerp(v, lerp(u, grad(P(AA+1), x, y, z-1),  /* CORNERS */
                     grad(P(BA+1), x-1, y, z-1)),          /* OF CUBE */
                  lerp(u, grad(P(AB+1), x, y-1, z-1),
                       grad(P(BB+1), x-1, y-1, z-1))));
     96a:	4b43      	ldr	r3, [pc, #268]	; (a78 <_ZN7Perlins6pnoiseEddd+0x2f8>)
     96c:	e9dd 0108 	ldrd	r0, r1, [sp, #32]
     970:	f00b fa84 	bl	be7c <__aeabi_dsub>

    return lerp(w,lerp(v,lerp(u, grad(P(AA  ), x, y, z),   /* AND ADD */
                              grad(P(BA  ), x-1, y, z)),   /* BLENDED */
                  lerp(u, grad(P(AB  ), x, y-1, z),        /* RESULTS */
                       grad(P(BB  ), x-1, y-1, z))),       /* FROM  8 */
                lerp(v, lerp(u, grad(P(AA+1), x, y, z-1),  /* CORNERS */
     974:	3701      	adds	r7, #1
                     grad(P(BA+1), x-1, y, z-1)),          /* OF CUBE */
                  lerp(u, grad(P(AB+1), x, y-1, z-1),
                       grad(P(BB+1), x-1, y-1, z-1))));
     976:	e9dd 2306 	ldrd	r2, r3, [sp, #24]

    return lerp(w,lerp(v,lerp(u, grad(P(AA  ), x, y, z),   /* AND ADD */
                              grad(P(BA  ), x-1, y, z)),   /* BLENDED */
                  lerp(u, grad(P(AB  ), x, y-1, z),        /* RESULTS */
                       grad(P(BB  ), x-1, y-1, z))),       /* FROM  8 */
                lerp(v, lerp(u, grad(P(AA+1), x, y, z-1),  /* CORNERS */
     97a:	b2ff      	uxtb	r7, r7
                     grad(P(BA+1), x-1, y, z-1)),          /* OF CUBE */
                  lerp(u, grad(P(AB+1), x, y-1, z-1),
                       grad(P(BB+1), x-1, y-1, z-1))));
     97c:	4682      	mov	sl, r0
     97e:	468b      	mov	fp, r1
     980:	e9cd 2300 	strd	r2, r3, [sp]
     984:	5de1      	ldrb	r1, [r4, r7]
     986:	e9dd 230a 	ldrd	r2, r3, [sp, #40]	; 0x28
     98a:	e9cd ab02 	strd	sl, fp, [sp, #8]
     98e:	4640      	mov	r0, r8
     990:	f7ff fecc 	bl	72c <_ZN7Perlins4gradEiddd>
    return lerp(w,lerp(v,lerp(u, grad(P(AA  ), x, y, z),   /* AND ADD */
                              grad(P(BA  ), x-1, y, z)),   /* BLENDED */
                  lerp(u, grad(P(AB  ), x, y-1, z),        /* RESULTS */
                       grad(P(BB  ), x-1, y-1, z))),       /* FROM  8 */
                lerp(v, lerp(u, grad(P(AA+1), x, y, z-1),  /* CORNERS */
                     grad(P(BA+1), x-1, y, z-1)),          /* OF CUBE */
     994:	3601      	adds	r6, #1
                  lerp(u, grad(P(AB+1), x, y-1, z-1),
                       grad(P(BB+1), x-1, y-1, z-1))));
     996:	e9dd 2306 	ldrd	r2, r3, [sp, #24]
    return lerp(w,lerp(v,lerp(u, grad(P(AA  ), x, y, z),   /* AND ADD */
                              grad(P(BA  ), x-1, y, z)),   /* BLENDED */
                  lerp(u, grad(P(AB  ), x, y-1, z),        /* RESULTS */
                       grad(P(BB  ), x-1, y-1, z))),       /* FROM  8 */
                lerp(v, lerp(u, grad(P(AA+1), x, y, z-1),  /* CORNERS */
                     grad(P(BA+1), x-1, y, z-1)),          /* OF CUBE */
     99a:	b2f6      	uxtb	r6, r6
                  lerp(u, grad(P(AB+1), x, y-1, z-1),
                       grad(P(BB+1), x-1, y-1, z-1))));
     99c:	e9cd 0108 	strd	r0, r1, [sp, #32]
     9a0:	e9cd 2300 	strd	r2, r3, [sp]
     9a4:	5da1      	ldrb	r1, [r4, r6]
     9a6:	e9dd 2310 	ldrd	r2, r3, [sp, #64]	; 0x40
     9aa:	e9cd ab02 	strd	sl, fp, [sp, #8]
     9ae:	4640      	mov	r0, r8
     9b0:	f7ff febc 	bl	72c <_ZN7Perlins4gradEiddd>
}

double Perlins::fade(double t){ return t * t * t * (t * (t * 6 - 15) + 10); }
double Perlins::lerp(double t, double a, double b){ return a + t * (b - a); }
     9b4:	e9dd 2308 	ldrd	r2, r3, [sp, #32]
     9b8:	f00b fa60 	bl	be7c <__aeabi_dsub>
     9bc:	4602      	mov	r2, r0
     9be:	460b      	mov	r3, r1
     9c0:	e9dd 010c 	ldrd	r0, r1, [sp, #48]	; 0x30
     9c4:	f00b fc0e 	bl	c1e4 <__aeabi_dmul>
     9c8:	4602      	mov	r2, r0
     9ca:	460b      	mov	r3, r1
     9cc:	e9dd 0108 	ldrd	r0, r1, [sp, #32]
     9d0:	f00b fa56 	bl	be80 <__adddf3>
                              grad(P(BA  ), x-1, y, z)),   /* BLENDED */
                  lerp(u, grad(P(AB  ), x, y-1, z),        /* RESULTS */
                       grad(P(BB  ), x-1, y-1, z))),       /* FROM  8 */
                lerp(v, lerp(u, grad(P(AA+1), x, y, z-1),  /* CORNERS */
                     grad(P(BA+1), x-1, y, z-1)),          /* OF CUBE */
                  lerp(u, grad(P(AB+1), x, y-1, z-1),
     9d4:	1c6b      	adds	r3, r5, #1
     9d6:	b2db      	uxtb	r3, r3
                       grad(P(BB+1), x-1, y-1, z-1))));
}

double Perlins::fade(double t){ return t * t * t * (t * (t * 6 - 15) + 10); }
double Perlins::lerp(double t, double a, double b){ return a + t * (b - a); }
     9d8:	e9cd 0106 	strd	r0, r1, [sp, #24]
                  lerp(u, grad(P(AB  ), x, y-1, z),        /* RESULTS */
                       grad(P(BB  ), x-1, y-1, z))),       /* FROM  8 */
                lerp(v, lerp(u, grad(P(AA+1), x, y, z-1),  /* CORNERS */
                     grad(P(BA+1), x-1, y, z-1)),          /* OF CUBE */
                  lerp(u, grad(P(AB+1), x, y-1, z-1),
                       grad(P(BB+1), x-1, y-1, z-1))));
     9dc:	5ce1      	ldrb	r1, [r4, r3]
     9de:	e9dd 2312 	ldrd	r2, r3, [sp, #72]	; 0x48
     9e2:	e9cd ab02 	strd	sl, fp, [sp, #8]
     9e6:	e9cd 2300 	strd	r2, r3, [sp]
     9ea:	4640      	mov	r0, r8
     9ec:	e9dd 230a 	ldrd	r2, r3, [sp, #40]	; 0x28
     9f0:	f7ff fe9c 	bl	72c <_ZN7Perlins4gradEiddd>
     9f4:	f109 0901 	add.w	r9, r9, #1
     9f8:	e9dd 2312 	ldrd	r2, r3, [sp, #72]	; 0x48
     9fc:	fa5f f989 	uxtb.w	r9, r9
     a00:	4606      	mov	r6, r0
     a02:	460f      	mov	r7, r1
     a04:	e9cd 2300 	strd	r2, r3, [sp]
     a08:	f814 1009 	ldrb.w	r1, [r4, r9]
     a0c:	e9dd 2310 	ldrd	r2, r3, [sp, #64]	; 0x40
     a10:	e9cd ab02 	strd	sl, fp, [sp, #8]
     a14:	4640      	mov	r0, r8
     a16:	f7ff fe89 	bl	72c <_ZN7Perlins4gradEiddd>
}

double Perlins::fade(double t){ return t * t * t * (t * (t * 6 - 15) + 10); }
double Perlins::lerp(double t, double a, double b){ return a + t * (b - a); }
     a1a:	4632      	mov	r2, r6
     a1c:	463b      	mov	r3, r7
     a1e:	f00b fa2d 	bl	be7c <__aeabi_dsub>
     a22:	4602      	mov	r2, r0
     a24:	460b      	mov	r3, r1
     a26:	e9dd 010c 	ldrd	r0, r1, [sp, #48]	; 0x30
     a2a:	f00b fbdb 	bl	c1e4 <__aeabi_dmul>
     a2e:	4602      	mov	r2, r0
     a30:	460b      	mov	r3, r1
     a32:	4630      	mov	r0, r6
     a34:	4639      	mov	r1, r7
     a36:	f00b fa23 	bl	be80 <__adddf3>
     a3a:	e9dd 2306 	ldrd	r2, r3, [sp, #24]
     a3e:	f00b fa1d 	bl	be7c <__aeabi_dsub>
     a42:	4602      	mov	r2, r0
     a44:	460b      	mov	r3, r1
     a46:	e9dd 0114 	ldrd	r0, r1, [sp, #80]	; 0x50
     a4a:	f00b fbcb 	bl	c1e4 <__aeabi_dmul>
     a4e:	4602      	mov	r2, r0
     a50:	460b      	mov	r3, r1
     a52:	e9dd 0106 	ldrd	r0, r1, [sp, #24]
     a56:	f00b fa13 	bl	be80 <__adddf3>
     a5a:	e9dd 230e 	ldrd	r2, r3, [sp, #56]	; 0x38
     a5e:	f00b fa0d 	bl	be7c <__aeabi_dsub>
     a62:	4602      	mov	r2, r0
     a64:	460b      	mov	r3, r1
     a66:	e9dd 0116 	ldrd	r0, r1, [sp, #88]	; 0x58
     a6a:	f00b fbbb 	bl	c1e4 <__aeabi_dmul>
     a6e:	4602      	mov	r2, r0
     a70:	460b      	mov	r3, r1
     a72:	e003      	b.n	a7c <_ZN7Perlins6pnoiseEddd+0x2fc>
     a74:	000128c4 	.word	0x000128c4
     a78:	3ff00000 	.word	0x3ff00000
     a7c:	e9dd 010e 	ldrd	r0, r1, [sp, #56]	; 0x38
     a80:	f00b f9fe 	bl	be80 <__adddf3>
                       grad(P(BB  ), x-1, y-1, z))),       /* FROM  8 */
                lerp(v, lerp(u, grad(P(AA+1), x, y, z-1),  /* CORNERS */
                     grad(P(BA+1), x-1, y, z-1)),          /* OF CUBE */
                  lerp(u, grad(P(AB+1), x, y-1, z-1),
                       grad(P(BB+1), x-1, y-1, z-1))));
}
     a84:	b019      	add	sp, #100	; 0x64
     a86:	e8bd 8ff0 	ldmia.w	sp!, {r4, r5, r6, r7, r8, r9, sl, fp, pc}
     a8a:	bf00      	nop

00000a8c <_ZN15P9813ControllerILh10ELh11EL6EOrder10ELh4EE9clearLedsEi>:

	virtual void init() {
		mSPI.init();
	}

	virtual void clearLeds(int nLeds) {
     a8c:	b513      	push	{r0, r1, r4, lr}
		showColor(CRGB(0,0,0), nLeds, CRGB(0,0,0));
     a8e:	6803      	ldr	r3, [r0, #0]
     a90:	681c      	ldr	r4, [r3, #0]
     a92:	2300      	movs	r3, #0

	virtual void init() {
		mSPI.init();
	}

	virtual void clearLeds(int nLeds) {
     a94:	460a      	mov	r2, r1
     a96:	f88d 3000 	strb.w	r3, [sp]
     a9a:	f88d 3001 	strb.w	r3, [sp, #1]
     a9e:	f88d 3002 	strb.w	r3, [sp, #2]
     aa2:	f88d 3004 	strb.w	r3, [sp, #4]
     aa6:	f88d 3005 	strb.w	r3, [sp, #5]
     aaa:	f88d 3006 	strb.w	r3, [sp, #6]
		showColor(CRGB(0,0,0), nLeds, CRGB(0,0,0));
     aae:	4669      	mov	r1, sp
     ab0:	ab01      	add	r3, sp, #4
     ab2:	47a0      	blx	r4
	}
     ab4:	b002      	add	sp, #8
     ab6:	bd10      	pop	{r4, pc}

00000ab8 <_ZN15P9813ControllerILh8ELh9EL6EOrder10ELh4EE9clearLedsEi>:

	virtual void init() {
		mSPI.init();
	}

	virtual void clearLeds(int nLeds) {
     ab8:	b513      	push	{r0, r1, r4, lr}
		showColor(CRGB(0,0,0), nLeds, CRGB(0,0,0));
     aba:	6803      	ldr	r3, [r0, #0]
     abc:	681c      	ldr	r4, [r3, #0]
     abe:	2300      	movs	r3, #0

	virtual void init() {
		mSPI.init();
	}

	virtual void clearLeds(int nLeds) {
     ac0:	460a      	mov	r2, r1
     ac2:	f88d 3000 	strb.w	r3, [sp]
     ac6:	f88d 3001 	strb.w	r3, [sp, #1]
     aca:	f88d 3002 	strb.w	r3, [sp, #2]
     ace:	f88d 3004 	strb.w	r3, [sp, #4]
     ad2:	f88d 3005 	strb.w	r3, [sp, #5]
     ad6:	f88d 3006 	strb.w	r3, [sp, #6]
		showColor(CRGB(0,0,0), nLeds, CRGB(0,0,0));
     ada:	4669      	mov	r1, sp
     adc:	ab01      	add	r3, sp, #4
     ade:	47a0      	blx	r4
	}
     ae0:	b002      	add	sp, #8
     ae2:	bd10      	pop	{r4, pc}

00000ae4 <_ZN15P9813ControllerILh6ELh7EL6EOrder10ELh4EE9clearLedsEi>:

	virtual void init() {
		mSPI.init();
	}

	virtual void clearLeds(int nLeds) {
     ae4:	b513      	push	{r0, r1, r4, lr}
		showColor(CRGB(0,0,0), nLeds, CRGB(0,0,0));
     ae6:	6803      	ldr	r3, [r0, #0]
     ae8:	681c      	ldr	r4, [r3, #0]
     aea:	2300      	movs	r3, #0

	virtual void init() {
		mSPI.init();
	}

	virtual void clearLeds(int nLeds) {
     aec:	460a      	mov	r2, r1
     aee:	f88d 3000 	strb.w	r3, [sp]
     af2:	f88d 3001 	strb.w	r3, [sp, #1]
     af6:	f88d 3002 	strb.w	r3, [sp, #2]
     afa:	f88d 3004 	strb.w	r3, [sp, #4]
     afe:	f88d 3005 	strb.w	r3, [sp, #5]
     b02:	f88d 3006 	strb.w	r3, [sp, #6]
		showColor(CRGB(0,0,0), nLeds, CRGB(0,0,0));
     b06:	4669      	mov	r1, sp
     b08:	ab01      	add	r3, sp, #4
     b0a:	47a0      	blx	r4
	}
     b0c:	b002      	add	sp, #8
     b0e:	bd10      	pop	{r4, pc}

00000b10 <_Z16modeButtonChangev>:
#define MODE_PIN 0
#define RANDOM_PIN 3

bool modeChange = false;
unsigned long lastActionTime = millis();
void modeButtonChange() {
     b10:	b513      	push	{r0, r1, r4, lr}
    if ((digitalRead(MODE_PIN) == HIGH) && (millis() >= lastActionTime + 200)) {
     b12:	2000      	movs	r0, #0
     b14:	f001 ff7a 	bl	2a0c <digitalRead>
     b18:	2801      	cmp	r0, #1
     b1a:	d10e      	bne.n	b3a <_Z16modeButtonChangev+0x2a>
extern volatile uint32_t systick_millis_count;

static inline uint32_t millis(void) __attribute__((always_inline, unused));
static inline uint32_t millis(void)
{
	volatile uint32_t ret = systick_millis_count; // single aligned 32 bit is atomic;
     b1c:	4a08      	ldr	r2, [pc, #32]	; (b40 <_Z16modeButtonChangev+0x30>)
     b1e:	6813      	ldr	r3, [r2, #0]
     b20:	9300      	str	r3, [sp, #0]
     b22:	4b08      	ldr	r3, [pc, #32]	; (b44 <_Z16modeButtonChangev+0x34>)
	return ret;
     b24:	9c00      	ldr	r4, [sp, #0]
     b26:	6819      	ldr	r1, [r3, #0]
     b28:	31c8      	adds	r1, #200	; 0xc8
     b2a:	428c      	cmp	r4, r1
     b2c:	d305      	bcc.n	b3a <_Z16modeButtonChangev+0x2a>
extern volatile uint32_t systick_millis_count;

static inline uint32_t millis(void) __attribute__((always_inline, unused));
static inline uint32_t millis(void)
{
	volatile uint32_t ret = systick_millis_count; // single aligned 32 bit is atomic;
     b2e:	6812      	ldr	r2, [r2, #0]
        modeChange = true;
     b30:	4905      	ldr	r1, [pc, #20]	; (b48 <_Z16modeButtonChangev+0x38>)
     b32:	9201      	str	r2, [sp, #4]
	return ret;
     b34:	9a01      	ldr	r2, [sp, #4]
     b36:	7008      	strb	r0, [r1, #0]
        lastActionTime = millis();
     b38:	601a      	str	r2, [r3, #0]
    }
}
     b3a:	b002      	add	sp, #8
     b3c:	bd10      	pop	{r4, pc}
     b3e:	bf00      	nop
     b40:	1fff91a8 	.word	0x1fff91a8
     b44:	1fff90bc 	.word	0x1fff90bc
     b48:	1fff90c0 	.word	0x1fff90c0

00000b4c <_ZN5Print7printlnEPKc>:
	size_t print(double n, int digits = 2)		{ return printFloat(n, digits); }
	size_t print(const Printable &obj)		{ return obj.printTo(*this); }
	size_t println(void);
	size_t println(const String &s)			{ return print(s) + println(); }
	size_t println(char c)				{ return print(c) + println(); }
	size_t println(const char s[])			{ return print(s) + println(); }
     b4c:	b538      	push	{r3, r4, r5, lr}
     b4e:	4604      	mov	r4, r0
class Print
{
  public:
	Print() : write_error(0) {}
	virtual size_t write(uint8_t b) = 0;
	size_t write(const char *str)			{ return write((const uint8_t *)str, strlen(str)); }
     b50:	4608      	mov	r0, r1
	size_t print(double n, int digits = 2)		{ return printFloat(n, digits); }
	size_t print(const Printable &obj)		{ return obj.printTo(*this); }
	size_t println(void);
	size_t println(const String &s)			{ return print(s) + println(); }
	size_t println(char c)				{ return print(c) + println(); }
	size_t println(const char s[])			{ return print(s) + println(); }
     b52:	460d      	mov	r5, r1
class Print
{
  public:
	Print() : write_error(0) {}
	virtual size_t write(uint8_t b) = 0;
	size_t write(const char *str)			{ return write((const uint8_t *)str, strlen(str)); }
     b54:	f001 fda2 	bl	269c <strlen>
     b58:	6823      	ldr	r3, [r4, #0]
     b5a:	4602      	mov	r2, r0
     b5c:	4629      	mov	r1, r5
     b5e:	685b      	ldr	r3, [r3, #4]
     b60:	4620      	mov	r0, r4
     b62:	4798      	blx	r3
     b64:	4605      	mov	r5, r0
	size_t print(double n, int digits = 2)		{ return printFloat(n, digits); }
	size_t print(const Printable &obj)		{ return obj.printTo(*this); }
	size_t println(void);
	size_t println(const String &s)			{ return print(s) + println(); }
	size_t println(char c)				{ return print(c) + println(); }
	size_t println(const char s[])			{ return print(s) + println(); }
     b66:	4620      	mov	r0, r4
     b68:	f001 ffec 	bl	2b44 <_ZN5Print7printlnEv>
     b6c:	4428      	add	r0, r5
     b6e:	bd38      	pop	{r3, r4, r5, pc}

00000b70 <_ZN14CLEDControllerC1Ev>:
#ifdef SUPPORT_ARGB
    // as above, but every 4th uint8_t is assumed to be alpha channel data, and will be skipped
    virtual void show(const struct CARGB *data, int nLeds, CRGB scale) = 0;
#endif
public:
    CLEDController() : m_Data(NULL), m_ColorCorrection(UncorrectedColor), m_ColorTemperature(UncorrectedTemperature), m_DitherMode(BINARY_DITHER), m_nLeds(0) {
     b70:	4b0c      	ldr	r3, [pc, #48]	; (ba4 <_ZN14CLEDControllerC1Ev+0x34>)
     b72:	6003      	str	r3, [r0, #0]
    : r((colorcode >> 16) & 0xFF), g((colorcode >> 8) & 0xFF), b((colorcode >> 0) & 0xFF)
    {
    }

    inline CRGB( LEDColorCorrection colorcode) __attribute__((always_inline))
    : r((colorcode >> 16) & 0xFF), g((colorcode >> 8) & 0xFF), b((colorcode >> 0) & 0xFF)
     b74:	23ff      	movs	r3, #255	; 0xff
     b76:	7303      	strb	r3, [r0, #12]
     b78:	7343      	strb	r3, [r0, #13]
     b7a:	7383      	strb	r3, [r0, #14]
    {

    }

    inline CRGB( ColorTemperature colorcode) __attribute__((always_inline))
    : r((colorcode >> 16) & 0xFF), g((colorcode >> 8) & 0xFF), b((colorcode >> 0) & 0xFF)
     b7c:	73c3      	strb	r3, [r0, #15]
     b7e:	7403      	strb	r3, [r0, #16]
     b80:	7443      	strb	r3, [r0, #17]
     b82:	2301      	movs	r3, #1
     b84:	7483      	strb	r3, [r0, #18]
        m_pNext = NULL;
        if(m_pHead==NULL) { m_pHead = this; }
     b86:	4b08      	ldr	r3, [pc, #32]	; (ba8 <_ZN14CLEDControllerC1Ev+0x38>)
#ifdef SUPPORT_ARGB
    // as above, but every 4th uint8_t is assumed to be alpha channel data, and will be skipped
    virtual void show(const struct CARGB *data, int nLeds, CRGB scale) = 0;
#endif
public:
    CLEDController() : m_Data(NULL), m_ColorCorrection(UncorrectedColor), m_ColorTemperature(UncorrectedTemperature), m_DitherMode(BINARY_DITHER), m_nLeds(0) {
     b88:	2200      	movs	r2, #0
     b8a:	6042      	str	r2, [r0, #4]
     b8c:	6142      	str	r2, [r0, #20]
        m_pNext = NULL;
     b8e:	6082      	str	r2, [r0, #8]
        if(m_pHead==NULL) { m_pHead = this; }
     b90:	681a      	ldr	r2, [r3, #0]
     b92:	b902      	cbnz	r2, b96 <_ZN14CLEDControllerC1Ev+0x26>
     b94:	6018      	str	r0, [r3, #0]
        if(m_pTail != NULL) { m_pTail->m_pNext = this; }
     b96:	4a05      	ldr	r2, [pc, #20]	; (bac <_ZN14CLEDControllerC1Ev+0x3c>)
     b98:	6813      	ldr	r3, [r2, #0]
     b9a:	b103      	cbz	r3, b9e <_ZN14CLEDControllerC1Ev+0x2e>
     b9c:	6098      	str	r0, [r3, #8]
        m_pTail = this;
     b9e:	6010      	str	r0, [r2, #0]
    }
     ba0:	4770      	bx	lr
     ba2:	bf00      	nop
     ba4:	000129e0 	.word	0x000129e0
     ba8:	1fff8d60 	.word	0x1fff8d60
     bac:	1fff8d64 	.word	0x1fff8d64

00000bb0 <_ZNSt6vectorIP8BaseModeSaIS1_EE19_M_emplace_back_auxIIS1_EEEvDpOT_>:

#if __cplusplus >= 201103L
  template<typename _Tp, typename _Alloc>
    template<typename... _Args>
      void
      vector<_Tp, _Alloc>::
     bb0:	b5f8      	push	{r3, r4, r5, r6, r7, lr}

      // [23.2.4.2] capacity
      /**  Returns the number of elements in the %vector.  */
      size_type
      size() const _GLIBCXX_NOEXCEPT
      { return size_type(this->_M_impl._M_finish - this->_M_impl._M_start); }
     bb2:	e890 0048 	ldmia.w	r0, {r3, r6}
     bb6:	1af6      	subs	r6, r6, r3
    max(const _Tp& __a, const _Tp& __b)
    {
      // concept requirements
      __glibcxx_function_requires(_LessThanComparableConcept<_Tp>)
      //return  __a < __b ? __b : __a;
      if (__a < __b)
     bb8:	10b6      	asrs	r6, r6, #2
     bba:	bf14      	ite	ne
     bbc:	4633      	movne	r3, r6
     bbe:	2301      	moveq	r3, #1
      {
	if (max_size() - size() < __n)
	  __throw_length_error(__N(__s));

	const size_type __len = size() + std::max(size(), __n);
	return (__len < size() || __len > max_size()) ? max_size() : __len;
     bc0:	199b      	adds	r3, r3, r6
     bc2:	4604      	mov	r4, r0
     bc4:	460f      	mov	r7, r1
     bc6:	f06f 4640 	mvn.w	r6, #3221225472	; 0xc0000000
     bca:	d203      	bcs.n	bd4 <_ZNSt6vectorIP8BaseModeSaIS1_EE19_M_emplace_back_auxIIS1_EEEvDpOT_+0x24>
     bcc:	42b3      	cmp	r3, r6
     bce:	bf38      	it	cc
     bd0:	461e      	movcc	r6, r3
    public:
      _Vector_impl _M_impl;

      pointer
      _M_allocate(size_t __n)
      { return __n != 0 ? _M_impl.allocate(__n) : 0; }
     bd2:	b126      	cbz	r6, bde <_ZNSt6vectorIP8BaseModeSaIS1_EE19_M_emplace_back_auxIIS1_EEEvDpOT_+0x2e>
      allocate(size_type __n, const void* = 0)
      { 
	if (__n > this->max_size())
	  std::__throw_bad_alloc();

	return static_cast<_Tp*>(::operator new(__n * sizeof(_Tp)));
     bd4:	00b0      	lsls	r0, r6, #2
     bd6:	f003 fbaf 	bl	4338 <_Znwj>
     bda:	4605      	mov	r5, r0
     bdc:	e000      	b.n	be0 <_ZNSt6vectorIP8BaseModeSaIS1_EE19_M_emplace_back_auxIIS1_EEEvDpOT_+0x30>
     bde:	4635      	mov	r5, r6

      // [23.2.4.2] capacity
      /**  Returns the number of elements in the %vector.  */
      size_type
      size() const _GLIBCXX_NOEXCEPT
      { return size_type(this->_M_impl._M_finish - this->_M_impl._M_start); }
     be0:	6862      	ldr	r2, [r4, #4]
     be2:	6823      	ldr	r3, [r4, #0]
     be4:	1ad3      	subs	r3, r2, r3
     be6:	109b      	asrs	r3, r3, #2
	pointer __new_start(this->_M_allocate(__len));
	pointer __new_finish(__new_start);
	__try
	  {
	    _Alloc_traits::construct(this->_M_impl, __new_start + size(),
				     std::forward<_Args>(__args)...);
     be8:	eb05 0183 	add.w	r1, r5, r3, lsl #2

#if __cplusplus >= 201103L
      template<typename _Up, typename... _Args>
        void
        construct(_Up* __p, _Args&&... __args)
	{ ::new((void *)__p) _Up(std::forward<_Args>(__args)...); }
     bec:	683a      	ldr	r2, [r7, #0]
     bee:	b109      	cbz	r1, bf4 <_ZNSt6vectorIP8BaseModeSaIS1_EE19_M_emplace_back_auxIIS1_EEEvDpOT_+0x44>
     bf0:	f845 2023 	str.w	r2, [r5, r3, lsl #2]
    {
      template<typename _Tp>
        static _Tp*
        __copy_m(const _Tp* __first, const _Tp* __last, _Tp* __result)
        {
	  const ptrdiff_t _Num = __last - __first;
     bf4:	e894 0082 	ldmia.w	r4, {r1, r7}
     bf8:	1a7f      	subs	r7, r7, r1
	  if (_Num)
     bfa:	10bf      	asrs	r7, r7, #2
     bfc:	ea4f 0787 	mov.w	r7, r7, lsl #2
     c00:	d003      	beq.n	c0a <_ZNSt6vectorIP8BaseModeSaIS1_EE19_M_emplace_back_auxIIS1_EEEvDpOT_+0x5a>
	    __builtin_memmove(__result, __first, sizeof(_Tp) * _Num);
     c02:	4628      	mov	r0, r5
     c04:	463a      	mov	r2, r7
     c06:	f00d fb5d 	bl	e2c4 <memmove>
	  }
	std::_Destroy(this->_M_impl._M_start, this->_M_impl._M_finish,
		      _M_get_Tp_allocator());
	_M_deallocate(this->_M_impl._M_start,
		      this->_M_impl._M_end_of_storage
		      - this->_M_impl._M_start);
     c0a:	6820      	ldr	r0, [r4, #0]
	  return __result + _Num;
     c0c:	442f      	add	r7, r5
	    __new_finish
	      = std::__uninitialized_move_if_noexcept_a
	      (this->_M_impl._M_start, this->_M_impl._M_finish,
	       __new_start, _M_get_Tp_allocator());

	    ++__new_finish;
     c0e:	3704      	adds	r7, #4
      { return __n != 0 ? _M_impl.allocate(__n) : 0; }

      void
      _M_deallocate(pointer __p, size_t __n)
      {
	if (__p)
     c10:	b108      	cbz	r0, c16 <_ZNSt6vectorIP8BaseModeSaIS1_EE19_M_emplace_back_auxIIS1_EEEvDpOT_+0x66>
      }

      // __p is not permitted to be a null pointer.
      void
      deallocate(pointer __p, size_type)
      { ::operator delete(__p); }
     c12:	f003 fb8d 	bl	4330 <_ZdlPv>
		      _M_get_Tp_allocator());
	_M_deallocate(this->_M_impl._M_start,
		      this->_M_impl._M_end_of_storage
		      - this->_M_impl._M_start);
	this->_M_impl._M_start = __new_start;
	this->_M_impl._M_finish = __new_finish;
     c16:	e884 00a0 	stmia.w	r4, {r5, r7}
	this->_M_impl._M_end_of_storage = __new_start + __len;
     c1a:	eb05 0586 	add.w	r5, r5, r6, lsl #2
     c1e:	60a5      	str	r5, [r4, #8]
     c20:	bdf8      	pop	{r3, r4, r5, r6, r7, pc}

00000c22 <_ZNSt6vectorIP8BaseModeSaIS1_EE12emplace_backIIS1_EEEvDpOT_>:

#if __cplusplus >= 201103L
  template<typename _Tp, typename _Alloc>
    template<typename... _Args>
      void
      vector<_Tp, _Alloc>::
     c22:	b538      	push	{r3, r4, r5, lr}
      emplace_back(_Args&&... __args)
      {
	if (this->_M_impl._M_finish != this->_M_impl._M_end_of_storage)
     c24:	6842      	ldr	r2, [r0, #4]
     c26:	6884      	ldr	r4, [r0, #8]
     c28:	42a2      	cmp	r2, r4

#if __cplusplus >= 201103L
  template<typename _Tp, typename _Alloc>
    template<typename... _Args>
      void
      vector<_Tp, _Alloc>::
     c2a:	4603      	mov	r3, r0
      emplace_back(_Args&&... __args)
      {
	if (this->_M_impl._M_finish != this->_M_impl._M_end_of_storage)
     c2c:	d006      	beq.n	c3c <_ZNSt6vectorIP8BaseModeSaIS1_EE12emplace_backIIS1_EEEvDpOT_+0x1a>

#if __cplusplus >= 201103L
      template<typename _Up, typename... _Args>
        void
        construct(_Up* __p, _Args&&... __args)
	{ ::new((void *)__p) _Up(std::forward<_Args>(__args)...); }
     c2e:	6809      	ldr	r1, [r1, #0]
     c30:	b102      	cbz	r2, c34 <_ZNSt6vectorIP8BaseModeSaIS1_EE12emplace_backIIS1_EEEvDpOT_+0x12>
     c32:	6011      	str	r1, [r2, #0]
	  {
	    _Alloc_traits::construct(this->_M_impl, this->_M_impl._M_finish,
				     std::forward<_Args>(__args)...);
	    ++this->_M_impl._M_finish;
     c34:	685a      	ldr	r2, [r3, #4]
     c36:	3204      	adds	r2, #4
     c38:	605a      	str	r2, [r3, #4]
     c3a:	bd38      	pop	{r3, r4, r5, pc}
	  }
	else
	  _M_emplace_back_aux(std::forward<_Args>(__args)...);
     c3c:	f7ff ffb8 	bl	bb0 <_ZNSt6vectorIP8BaseModeSaIS1_EE19_M_emplace_back_auxIIS1_EEEvDpOT_>
     c40:	bd38      	pop	{r3, r4, r5, pc}
     c42:	ffff e92d 	vtbl.8	d30, {d15-d16}, d29

00000c44 <main>:

extern "C" int main(void)
{
     c44:	e92d 47f0 	stmdb	sp!, {r4, r5, r6, r7, r8, r9, sl, lr}
    Serial.begin(9600);
	static bool reboot = false;
	int brightness = LED_DEFAULT_BRIGHTNESS;

    pinMode(RANDOM_PIN, INPUT);
     c48:	2100      	movs	r1, #0
        lastActionTime = millis();
    }
}

extern "C" int main(void)
{
     c4a:	b088      	sub	sp, #32
    Serial.begin(9600);
	static bool reboot = false;
	int brightness = LED_DEFAULT_BRIGHTNESS;

    pinMode(RANDOM_PIN, INPUT);
     c4c:	2003      	movs	r0, #3
     c4e:	f001 feeb 	bl	2a28 <pinMode>
    randomSeed(analogRead(RANDOM_PIN));
     c52:	2003      	movs	r0, #3
     c54:	f001 fa28 	bl	20a8 <analogRead>
     c58:	f003 fb30 	bl	42bc <_Z10randomSeedm>
    random16_add_entropy(random());
     c5c:	f003 fb34 	bl	42c8 <_Z6randomv>
    return rand16seed;
}

LIB8STATIC void random16_add_entropy( uint16_t entropy)
{
    rand16seed += entropy;
     c60:	4bb3      	ldr	r3, [pc, #716]	; (f30 <main+0x2ec>)
     c62:	881a      	ldrh	r2, [r3, #0]
     c64:	4410      	add	r0, r2
     c66:	8018      	strh	r0, [r3, #0]

//	analogReference(DEFAULT);
//	analogReadResolution(10); // anything more seemed like overkill
//	analogReadAveraging(10);

	pinMode(LED_PIN, OUTPUT);
     c68:	2101      	movs	r1, #1
     c6a:	200d      	movs	r0, #13
     c6c:	f001 fedc 	bl	2a28 <pinMode>
	pinMode(15, INPUT);
     c70:	200f      	movs	r0, #15
     c72:	2100      	movs	r1, #0
     c74:	f001 fed8 	bl	2a28 <pinMode>

    // <cgerstle> button
    pinMode(MODE_PIN, INPUT);
     c78:	2000      	movs	r0, #0
     c7a:	4601      	mov	r1, r0
     c7c:	f001 fed4 	bl	2a28 <pinMode>
    attachInterrupt(MODE_PIN, modeButtonChange, RISING);
     c80:	2000      	movs	r0, #0
     c82:	49ac      	ldr	r1, [pc, #688]	; (f34 <main+0x2f0>)
     c84:	2203      	movs	r2, #3
     c86:	f001 fd43 	bl	2710 <attachInterrupt>

	begin:

	FastLED.setBrightness(LED_DEFAULT_BRIGHTNESS);
     c8a:	4bab      	ldr	r3, [pc, #684]	; (f38 <main+0x2f4>)
     c8c:	681c      	ldr	r4, [r3, #0]
			case WS2811_PORTC: return addLeds(new BlockClocklessController<NUM_LANES, NS(350), NS(350), NS(550)>(), data, nLedsOrOffset, nLedsIfOffset);
		}
	}
#endif

	void setBrightness(uint8_t scale) { m_Scale = scale; }
     c8e:	2364      	movs	r3, #100	; 0x64
     c90:	7023      	strb	r3, [r4, #0]
     c92:	2500      	movs	r5, #0
     c94:	f8df 82f8 	ldr.w	r8, [pc, #760]	; f90 <main+0x34c>
    {
    }

    // allow construction from H, S, V
    inline CHSV( uint8_t ih, uint8_t is, uint8_t iv) __attribute__((always_inline))
        : h(ih), s(is), v(iv)
     c98:	2300      	movs	r3, #0
    }

    // allow assignment from HSV color
	inline CRGB& operator= (const CHSV& rhs) __attribute__((always_inline))
    {
        hsv2rgb_rainbow( rhs, *this);
     c9a:	eb08 0105 	add.w	r1, r8, r5
     c9e:	a804      	add	r0, sp, #16
    {
    }

    // allow construction from H, S, V
    inline CHSV( uint8_t ih, uint8_t is, uint8_t iv) __attribute__((always_inline))
        : h(ih), s(is), v(iv)
     ca0:	f88d 3010 	strb.w	r3, [sp, #16]
     ca4:	f88d 3011 	strb.w	r3, [sp, #17]
     ca8:	f88d 3012 	strb.w	r3, [sp, #18]
     cac:	3503      	adds	r5, #3
    }

    // allow assignment from HSV color
	inline CRGB& operator= (const CHSV& rhs) __attribute__((always_inline))
    {
        hsv2rgb_rainbow( rhs, *this);
     cae:	f7ff fc42 	bl	536 <_Z15hsv2rgb_rainbowRK4CHSVR4CRGB>
	for (uint8_t i = 0; i < nLEDS; i++)
     cb2:	f240 23ee 	movw	r3, #750	; 0x2ee
     cb6:	429d      	cmp	r5, r3
     cb8:	4647      	mov	r7, r8
     cba:	d1eb      	bne.n	c94 <main+0x50>
	    leds[i] = CHSV(0, 0, 0);
	led_init();
     cbc:	4b9f      	ldr	r3, [pc, #636]	; (f3c <main+0x2f8>)
		switch(CHIPSET) {
			case LPD8806: { static LPD8806Controller<DATA_PIN, CLOCK_PIN, RGB_ORDER, SPI_DATA_RATE> c; return addLeds(&c, data, nLedsOrOffset, nLedsIfOffset); }
			case WS2801: { static WS2801Controller<DATA_PIN, CLOCK_PIN, RGB_ORDER, SPI_DATA_RATE> c; return addLeds(&c, data, nLedsOrOffset, nLedsIfOffset); }
			case WS2803: { static WS2803Controller<DATA_PIN, CLOCK_PIN, RGB_ORDER, SPI_DATA_RATE> c; return addLeds(&c, data, nLedsOrOffset, nLedsIfOffset); }
			case SM16716: { static SM16716Controller<DATA_PIN, CLOCK_PIN, RGB_ORDER, SPI_DATA_RATE> c; return addLeds(&c, data, nLedsOrOffset, nLedsIfOffset); }
			case P9813: { static P9813Controller<DATA_PIN, CLOCK_PIN, RGB_ORDER, SPI_DATA_RATE> c; return addLeds(&c, data, nLedsOrOffset, nLedsIfOffset); }
     cbe:	4da0      	ldr	r5, [pc, #640]	; (f40 <main+0x2fc>)
     cc0:	f8d3 9000 	ldr.w	r9, [r3]
     cc4:	682b      	ldr	r3, [r5, #0]
     cc6:	f013 0a01 	ands.w	sl, r3, #1
     cca:	d10e      	bne.n	cea <main+0xa6>
     ccc:	4628      	mov	r0, r5
     cce:	f001 fcb1 	bl	2634 <__cxa_guard_acquire>
     cd2:	b150      	cbz	r0, cea <main+0xa6>
		register uint8_t top = 0xC0 | ((~b & 0xC0) >> 2) | ((~g & 0xC0) >> 4) | ((~r & 0xC0) >> 6);
		mSPI.writeByte(top); mSPI.writeByte(b); mSPI.writeByte(g); mSPI.writeByte(r);
	}

public:
	P9813Controller() {}
     cd4:	4e9b      	ldr	r6, [pc, #620]	; (f44 <main+0x300>)
     cd6:	4630      	mov	r0, r6
     cd8:	f7ff ff4a 	bl	b70 <_ZN14CLEDControllerC1Ev>
     cdc:	4b9a      	ldr	r3, [pc, #616]	; (f48 <main+0x304>)
	typedef typename FastPin<DATA_PIN>::port_t data_t;
	typedef typename FastPin<CLOCK_PIN>::port_t clock_t;
	Selectable 	*m_pSelect;

public:
	AVRSoftwareSPIOutput() { m_pSelect = NULL; }
     cde:	f8c6 a018 	str.w	sl, [r6, #24]
     ce2:	4628      	mov	r0, r5
     ce4:	6033      	str	r3, [r6, #0]
     ce6:	f001 fcab 	bl	2640 <__cxa_guard_release>
     cea:	4649      	mov	r1, r9
     cec:	2300      	movs	r3, #0
     cee:	4895      	ldr	r0, [pc, #596]	; (f44 <main+0x300>)
     cf0:	4d96      	ldr	r5, [pc, #600]	; (f4c <main+0x308>)
     cf2:	2264      	movs	r2, #100	; 0x64
     cf4:	f7ff fbcc 	bl	490 <_ZN8CFastLED7addLedsEP14CLEDControllerP4CRGBii>
     cf8:	4b95      	ldr	r3, [pc, #596]	; (f50 <main+0x30c>)
     cfa:	f8d3 9000 	ldr.w	r9, [r3]
     cfe:	682b      	ldr	r3, [r5, #0]
     d00:	f013 0a01 	ands.w	sl, r3, #1
     d04:	d10e      	bne.n	d24 <main+0xe0>
     d06:	4628      	mov	r0, r5
     d08:	f001 fc94 	bl	2634 <__cxa_guard_acquire>
     d0c:	b150      	cbz	r0, d24 <main+0xe0>
     d0e:	4e91      	ldr	r6, [pc, #580]	; (f54 <main+0x310>)
     d10:	4630      	mov	r0, r6
     d12:	f7ff ff2d 	bl	b70 <_ZN14CLEDControllerC1Ev>
     d16:	4b90      	ldr	r3, [pc, #576]	; (f58 <main+0x314>)
     d18:	f8c6 a018 	str.w	sl, [r6, #24]
     d1c:	4628      	mov	r0, r5
     d1e:	6033      	str	r3, [r6, #0]
     d20:	f001 fc8e 	bl	2640 <__cxa_guard_release>
     d24:	4649      	mov	r1, r9
     d26:	2300      	movs	r3, #0
     d28:	488a      	ldr	r0, [pc, #552]	; (f54 <main+0x310>)
     d2a:	4d8c      	ldr	r5, [pc, #560]	; (f5c <main+0x318>)
     d2c:	2264      	movs	r2, #100	; 0x64
     d2e:	f7ff fbaf 	bl	490 <_ZN8CFastLED7addLedsEP14CLEDControllerP4CRGBii>
     d32:	4b8b      	ldr	r3, [pc, #556]	; (f60 <main+0x31c>)
     d34:	f8d3 9000 	ldr.w	r9, [r3]
     d38:	682b      	ldr	r3, [r5, #0]
     d3a:	f013 0a01 	ands.w	sl, r3, #1
     d3e:	d10e      	bne.n	d5e <main+0x11a>
     d40:	4628      	mov	r0, r5
     d42:	f001 fc77 	bl	2634 <__cxa_guard_acquire>
     d46:	b150      	cbz	r0, d5e <main+0x11a>
     d48:	4e86      	ldr	r6, [pc, #536]	; (f64 <main+0x320>)
     d4a:	4630      	mov	r0, r6
     d4c:	f7ff ff10 	bl	b70 <_ZN14CLEDControllerC1Ev>
     d50:	4b85      	ldr	r3, [pc, #532]	; (f68 <main+0x324>)
     d52:	f8c6 a018 	str.w	sl, [r6, #24]
     d56:	4628      	mov	r0, r5
     d58:	6033      	str	r3, [r6, #0]
     d5a:	f001 fc71 	bl	2640 <__cxa_guard_release>
     d5e:	2232      	movs	r2, #50	; 0x32
     d60:	4649      	mov	r1, r9
     d62:	2300      	movs	r3, #0
     d64:	487f      	ldr	r0, [pc, #508]	; (f64 <main+0x320>)
     d66:	f7ff fb93 	bl	490 <_ZN8CFastLED7addLedsEP14CLEDControllerP4CRGBii>
	pointer _M_start;
	pointer _M_finish;
	pointer _M_end_of_storage;

	_Vector_impl()
	: _Tp_alloc_type(), _M_start(0), _M_finish(0), _M_end_of_storage(0)
     d6a:	2500      	movs	r5, #0


    std::vector<BaseMode*> modes;
    modes.push_back(new MeltMode());
     d6c:	2030      	movs	r0, #48	; 0x30
     d6e:	9505      	str	r5, [sp, #20]
     d70:	9506      	str	r5, [sp, #24]
     d72:	9507      	str	r5, [sp, #28]
     d74:	f003 fae0 	bl	4338 <_Znwj>
     d78:	4606      	mov	r6, r0
     d7a:	f001 f89d 	bl	1eb8 <_ZN8MeltModeC1Ev>
      }

#if __cplusplus >= 201103L
      void
      push_back(value_type&& __x)
      { emplace_back(std::move(__x)); }
     d7e:	a904      	add	r1, sp, #16
     d80:	a805      	add	r0, sp, #20
     d82:	9604      	str	r6, [sp, #16]
     d84:	f7ff ff4d 	bl	c22 <_ZNSt6vectorIP8BaseModeSaIS1_EE12emplace_backIIS1_EEEvDpOT_>
    {
    }

    // allow construction from H, S, V
    inline CHSV( uint8_t ih, uint8_t is, uint8_t iv) __attribute__((always_inline))
        : h(ih), s(is), v(iv)
     d88:	26ff      	movs	r6, #255	; 0xff
     d8a:	23c0      	movs	r3, #192	; 0xc0
    modes.push_back(new ColorMode("purple", CHSV(192, 255, 255), 125));
     d8c:	2014      	movs	r0, #20
     d8e:	f88d 300c 	strb.w	r3, [sp, #12]
     d92:	f88d 600d 	strb.w	r6, [sp, #13]
     d96:	f88d 600e 	strb.w	r6, [sp, #14]
     d9a:	f003 facd 	bl	4338 <_Znwj>
     d9e:	aa03      	add	r2, sp, #12
     da0:	237d      	movs	r3, #125	; 0x7d
     da2:	4972      	ldr	r1, [pc, #456]	; (f6c <main+0x328>)
     da4:	4681      	mov	r9, r0
     da6:	f000 fe79 	bl	1a9c <_ZN9ColorModeC1EPKc4CHSVl>
     daa:	a904      	add	r1, sp, #16
     dac:	a805      	add	r0, sp, #20
     dae:	f8cd 9010 	str.w	r9, [sp, #16]
     db2:	f7ff ff36 	bl	c22 <_ZNSt6vectorIP8BaseModeSaIS1_EE12emplace_backIIS1_EEEvDpOT_>
     db6:	2320      	movs	r3, #32
    modes.push_back(new ColorMode("orange", CHSV(32, 255, 255), 125));
     db8:	2014      	movs	r0, #20
     dba:	f88d 300c 	strb.w	r3, [sp, #12]
     dbe:	f88d 600d 	strb.w	r6, [sp, #13]
     dc2:	f88d 600e 	strb.w	r6, [sp, #14]
     dc6:	f003 fab7 	bl	4338 <_Znwj>
     dca:	aa03      	add	r2, sp, #12
     dcc:	237d      	movs	r3, #125	; 0x7d
     dce:	4968      	ldr	r1, [pc, #416]	; (f70 <main+0x32c>)
     dd0:	4681      	mov	r9, r0
     dd2:	f000 fe63 	bl	1a9c <_ZN9ColorModeC1EPKc4CHSVl>
     dd6:	a904      	add	r1, sp, #16
     dd8:	a805      	add	r0, sp, #20
     dda:	f8cd 9010 	str.w	r9, [sp, #16]
     dde:	f7ff ff20 	bl	c22 <_ZNSt6vectorIP8BaseModeSaIS1_EE12emplace_backIIS1_EEEvDpOT_>
    modes.push_back(new ColorMode("white", CHSV(0, 0, 255), 0));
     de2:	2014      	movs	r0, #20
     de4:	f88d 500c 	strb.w	r5, [sp, #12]
     de8:	f88d 500d 	strb.w	r5, [sp, #13]
     dec:	f88d 600e 	strb.w	r6, [sp, #14]
     df0:	f003 faa2 	bl	4338 <_Znwj>
     df4:	462b      	mov	r3, r5
     df6:	aa03      	add	r2, sp, #12
     df8:	495e      	ldr	r1, [pc, #376]	; (f74 <main+0x330>)
     dfa:	4606      	mov	r6, r0
     dfc:	f000 fe4e 	bl	1a9c <_ZN9ColorModeC1EPKc4CHSVl>
     e00:	a805      	add	r0, sp, #20
     e02:	a904      	add	r1, sp, #16
     e04:	9604      	str	r6, [sp, #16]
     e06:	f7ff ff0c 	bl	c22 <_ZNSt6vectorIP8BaseModeSaIS1_EE12emplace_backIIS1_EEEvDpOT_>
      typedef typename __traits_type::pointer   	pointer;

      _GLIBCXX_CONSTEXPR __normal_iterator() : _M_current(_Iterator()) { }

      explicit
      __normal_iterator(const _Iterator& __i) : _M_current(__i) { }
     e0a:	9d05      	ldr	r5, [sp, #20]

      // [23.2.4.2] capacity
      /**  Returns the number of elements in the %vector.  */
      size_type
      size() const _GLIBCXX_NOEXCEPT
      { return size_type(this->_M_impl._M_finish - this->_M_impl._M_start); }
     e0c:	9a06      	ldr	r2, [sp, #24]
    std::vector<BaseMode*>::iterator modeIterator = modes.begin();

    Serial.printf("mode count: %d\n", modes.size());
     e0e:	485a      	ldr	r0, [pc, #360]	; (f78 <main+0x334>)
     e10:	495a      	ldr	r1, [pc, #360]	; (f7c <main+0x338>)
     e12:	1b52      	subs	r2, r2, r5
     e14:	1092      	asrs	r2, r2, #2
     e16:	f001 feab 	bl	2b70 <_ZN5Print6printfEPKcz>
     e1a:	9e05      	ldr	r6, [sp, #20]
    for (std::vector<BaseMode*>::iterator it = modes.begin() ; it != modes.end(); ++it)
     e1c:	9b06      	ldr	r3, [sp, #24]
     e1e:	429e      	cmp	r6, r3
     e20:	d00a      	beq.n	e38 <main+0x1f4>
    {
        Serial.printf("mode: %s\n", (*it)->name());
     e22:	f856 0b04 	ldr.w	r0, [r6], #4
     e26:	6803      	ldr	r3, [r0, #0]
     e28:	68db      	ldr	r3, [r3, #12]
     e2a:	4798      	blx	r3
     e2c:	4954      	ldr	r1, [pc, #336]	; (f80 <main+0x33c>)
     e2e:	4602      	mov	r2, r0
     e30:	4851      	ldr	r0, [pc, #324]	; (f78 <main+0x334>)
     e32:	f001 fe9d 	bl	2b70 <_ZN5Print6printfEPKcz>
     e36:	e7f1      	b.n	e1c <main+0x1d8>
    modes.push_back(new ColorMode("orange", CHSV(32, 255, 255), 125));
    modes.push_back(new ColorMode("white", CHSV(0, 0, 255), 0));
    std::vector<BaseMode*>::iterator modeIterator = modes.begin();

    Serial.printf("mode count: %d\n", modes.size());
    for (std::vector<BaseMode*>::iterator it = modes.begin() ; it != modes.end(); ++it)
     e38:	2600      	movs	r6, #0
     e3a:	2300      	movs	r3, #0
    }

    // allow assignment from HSV color
	inline CRGB& operator= (const CHSV& rhs) __attribute__((always_inline))
    {
        hsv2rgb_rainbow( rhs, *this);
     e3c:	eb08 0106 	add.w	r1, r8, r6
     e40:	a804      	add	r0, sp, #16
    {
    }

    // allow construction from H, S, V
    inline CHSV( uint8_t ih, uint8_t is, uint8_t iv) __attribute__((always_inline))
        : h(ih), s(is), v(iv)
     e42:	f88d 3010 	strb.w	r3, [sp, #16]
     e46:	f88d 3011 	strb.w	r3, [sp, #17]
     e4a:	f88d 3012 	strb.w	r3, [sp, #18]
     e4e:	3603      	adds	r6, #3
    }

    // allow assignment from HSV color
	inline CRGB& operator= (const CHSV& rhs) __attribute__((always_inline))
    {
        hsv2rgb_rainbow( rhs, *this);
     e50:	f7ff fb71 	bl	536 <_Z15hsv2rgb_rainbowRK4CHSVR4CRGB>
    {
        Serial.printf("mode: %s\n", (*it)->name());
    }

	for (uint8_t i = 0; i < nLEDS; i++)
     e54:	f240 23ee 	movw	r3, #750	; 0x2ee
     e58:	429e      	cmp	r6, r3
     e5a:	d1ee      	bne.n	e3a <main+0x1f6>

	/// Update all our controllers with the current led colors, using the passed in brightness
	void show(uint8_t scale);

	/// Update all our controllers with the current led colors
	void show() { show(m_Scale); }
     e5c:	4620      	mov	r0, r4
     e5e:	7821      	ldrb	r1, [r4, #0]
     e60:	f7ff fb2a 	bl	4b8 <_ZN8CFastLED4showEh>
	    leds[i] = CHSV(0, 0, 0);
	led_show();

	// Get a random seed
	randomSeed(analogRead(8));
     e64:	2008      	movs	r0, #8
     e66:	f001 f91f 	bl	20a8 <analogRead>
     e6a:	f003 fa27 	bl	42bc <_Z10randomSeedm>

	while (1) {
		if (reboot)
     e6e:	4b45      	ldr	r3, [pc, #276]	; (f84 <main+0x340>)
     e70:	781e      	ldrb	r6, [r3, #0]
     e72:	2e00      	cmp	r6, #0
     e74:	d136      	bne.n	ee4 <main+0x2a0>
			goto reboot;

		brightness = analogRead(BRIGHTNESS_PIN);
     e76:	2001      	movs	r0, #1
     e78:	f001 f916 	bl	20a8 <analogRead>
		//Serial.print(brightness); Serial.print("\t");
		brightness = map(brightness, 525, 1023, 0, 255);
     e7c:	23ff      	movs	r3, #255	; 0xff
     e7e:	f240 32ff 	movw	r2, #1023	; 0x3ff
     e82:	f240 210d 	movw	r1, #525	; 0x20d
     e86:	9300      	str	r3, [sp, #0]
     e88:	4633      	mov	r3, r6
     e8a:	f003 fa3f 	bl	430c <_Z3maplllll>
		if (brightness < 15)
		    brightness = 0;
     e8e:	280e      	cmp	r0, #14
     e90:	bfd8      	it	le
     e92:	2000      	movle	r0, #0
		//Serial.println(brightness);
		FastLED.setBrightness(brightness);
     e94:	7020      	strb	r0, [r4, #0]

		(*modeIterator)->frame();
     e96:	6828      	ldr	r0, [r5, #0]
     e98:	6803      	ldr	r3, [r0, #0]
     e9a:	689b      	ldr	r3, [r3, #8]
     e9c:	4798      	blx	r3
     e9e:	4620      	mov	r0, r4
     ea0:	7821      	ldrb	r1, [r4, #0]
     ea2:	f7ff fb09 	bl	4b8 <_ZN8CFastLED4showEh>
		led_show();

		if (modeChange)
     ea6:	4b38      	ldr	r3, [pc, #224]	; (f88 <main+0x344>)
     ea8:	781a      	ldrb	r2, [r3, #0]
     eaa:	2a00      	cmp	r2, #0
     eac:	d0df      	beq.n	e6e <main+0x22a>
		{
		    modeChange = false;
		    digitalWrite(LED_PIN, HIGH);   // set the LED on
     eae:	200d      	movs	r0, #13
     eb0:	2101      	movs	r1, #1
		(*modeIterator)->frame();
		led_show();

		if (modeChange)
		{
		    modeChange = false;
     eb2:	701e      	strb	r6, [r3, #0]
		    digitalWrite(LED_PIN, HIGH);   // set the LED on
     eb4:	f001 fd8a 	bl	29cc <digitalWrite>

		    modeIterator++;
		    if (modeIterator == modes.end())
     eb8:	9b06      	ldr	r3, [sp, #24]
	return *this;
      }

      __normal_iterator
      operator++(int)
      { return __normal_iterator(_M_current++); }
     eba:	3504      	adds	r5, #4
     ebc:	429d      	cmp	r5, r3
     ebe:	d104      	bne.n	eca <main+0x286>
		    {
		        Serial.println("at back, starting over");
     ec0:	482d      	ldr	r0, [pc, #180]	; (f78 <main+0x334>)
     ec2:	4932      	ldr	r1, [pc, #200]	; (f8c <main+0x348>)
     ec4:	f7ff fe42 	bl	b4c <_ZN5Print7printlnEPKc>
      typedef typename __traits_type::pointer   	pointer;

      _GLIBCXX_CONSTEXPR __normal_iterator() : _M_current(_Iterator()) { }

      explicit
      __normal_iterator(const _Iterator& __i) : _M_current(__i) { }
     ec8:	9d05      	ldr	r5, [sp, #20]
		        modeIterator = modes.begin();
		    }

		    Serial.println((*modeIterator)->name());
     eca:	6828      	ldr	r0, [r5, #0]
     ecc:	6803      	ldr	r3, [r0, #0]
     ece:	68db      	ldr	r3, [r3, #12]
     ed0:	4798      	blx	r3
     ed2:	4601      	mov	r1, r0
     ed4:	4828      	ldr	r0, [pc, #160]	; (f78 <main+0x334>)
     ed6:	f7ff fe39 	bl	b4c <_ZN5Print7printlnEPKc>
		    digitalWrite(LED_PIN, LOW);    // set the LED off
     eda:	200d      	movs	r0, #13
     edc:	2100      	movs	r1, #0
     ede:	f001 fd75 	bl	29cc <digitalWrite>
     ee2:	e7c4      	b.n	e6e <main+0x22a>
	}

	reboot:

	// Attempt teardown
	reboot = false;
     ee4:	2200      	movs	r2, #0
     ee6:	9d05      	ldr	r5, [sp, #20]
     ee8:	701a      	strb	r2, [r3, #0]
	for(std::vector<BaseMode*>::iterator i = modes.begin(); i != modes.end(); ++i )
     eea:	9b06      	ldr	r3, [sp, #24]
     eec:	429d      	cmp	r5, r3
     eee:	d007      	beq.n	f00 <main+0x2bc>
	{
    	delete *i;
     ef0:	f855 0b04 	ldr.w	r0, [r5], #4
     ef4:	2800      	cmp	r0, #0
     ef6:	d0f8      	beq.n	eea <main+0x2a6>
     ef8:	6803      	ldr	r3, [r0, #0]
     efa:	685b      	ldr	r3, [r3, #4]
     efc:	4798      	blx	r3
     efe:	e7f4      	b.n	eea <main+0x2a6>
      // _M_assign_aux.
      void
      _M_erase_at_end(pointer __pos)
      {
	std::_Destroy(__pos, this->_M_impl._M_finish, _M_get_Tp_allocator());
	this->_M_impl._M_finish = __pos;
     f00:	9b05      	ldr	r3, [sp, #20]
     f02:	9306      	str	r3, [sp, #24]
     f04:	2300      	movs	r3, #0
    }

    // allow assignment from 32-bit (really 24-bit) 0xRRGGBB color code
	inline CRGB& operator= (const uint32_t colorcode) __attribute__((always_inline))
    {
        r = (colorcode >> 16) & 0xFF;
     f06:	18f9      	adds	r1, r7, r3
     f08:	2200      	movs	r2, #0
     f0a:	54fa      	strb	r2, [r7, r3]
        g = (colorcode >>  8) & 0xFF;
     f0c:	704a      	strb	r2, [r1, #1]
        b = (colorcode >>  0) & 0xFF;
     f0e:	708a      	strb	r2, [r1, #2]
     f10:	3303      	adds	r3, #3
	}
	modes.clear();

    for (int i = 0; i < nLEDS; i++)
     f12:	f240 22ee 	movw	r2, #750	; 0x2ee
     f16:	4293      	cmp	r3, r2
     f18:	d1f5      	bne.n	f06 <main+0x2c2>
     f1a:	4620      	mov	r0, r4
     f1c:	7821      	ldrb	r1, [r4, #0]
     f1e:	f7ff facb 	bl	4b8 <_ZN8CFastLED4showEh>
      }
#endif

      ~_Vector_base()
      { _M_deallocate(this->_M_impl._M_start, this->_M_impl._M_end_of_storage
		      - this->_M_impl._M_start); }
     f22:	9805      	ldr	r0, [sp, #20]
      { return __n != 0 ? _M_impl.allocate(__n) : 0; }

      void
      _M_deallocate(pointer __p, size_t __n)
      {
	if (__p)
     f24:	2800      	cmp	r0, #0
     f26:	f43f aeb0 	beq.w	c8a <main+0x46>
      }

      // __p is not permitted to be a null pointer.
      void
      deallocate(pointer __p, size_type)
      { ::operator delete(__p); }
     f2a:	f003 fa01 	bl	4330 <_ZdlPv>
     f2e:	e6ac      	b.n	c8a <main+0x46>
     f30:	1fff8404 	.word	0x1fff8404
     f34:	00000b11 	.word	0x00000b11
     f38:	000128c0 	.word	0x000128c0
     f3c:	1fff8410 	.word	0x1fff8410
     f40:	1fff90b4 	.word	0x1fff90b4
     f44:	1fff9090 	.word	0x1fff9090
     f48:	000129f8 	.word	0x000129f8
     f4c:	1fff90b0 	.word	0x1fff90b0
     f50:	1fff840c 	.word	0x1fff840c
     f54:	1fff9074 	.word	0x1fff9074
     f58:	00012a10 	.word	0x00012a10
     f5c:	1fff90ac 	.word	0x1fff90ac
     f60:	1fff8408 	.word	0x1fff8408
     f64:	1fff9058 	.word	0x1fff9058
     f68:	00012a28 	.word	0x00012a28
     f6c:	00012a38 	.word	0x00012a38
     f70:	00012a3f 	.word	0x00012a3f
     f74:	00012a46 	.word	0x00012a46
     f78:	1fff9408 	.word	0x1fff9408
     f7c:	00012a4c 	.word	0x00012a4c
     f80:	00012a5c 	.word	0x00012a5c
     f84:	1fff90b8 	.word	0x1fff90b8
     f88:	1fff90c0 	.word	0x1fff90c0
     f8c:	00012a66 	.word	0x00012a66
     f90:	1fff8d68 	.word	0x1fff8d68

00000f94 <_ZN20AVRSoftwareSPIOutputILh10ELh11ELh4EE6selectEv>:
	}
public:

	// select the SPI output (TODO: research whether this really means hi or lo.  Alt TODO: move select responsibility out of the SPI classes
	// entirely, make it up to the caller to remember to lock/select the line?)
	void select() { if(m_pSelect != NULL) { m_pSelect->select(); } } // FastPin<SELECT_PIN>::hi(); }
     f94:	6800      	ldr	r0, [r0, #0]
     f96:	b508      	push	{r3, lr}
     f98:	b110      	cbz	r0, fa0 <_ZN20AVRSoftwareSPIOutputILh10ELh11ELh4EE6selectEv+0xc>
     f9a:	6803      	ldr	r3, [r0, #0]
     f9c:	681b      	ldr	r3, [r3, #0]
     f9e:	4798      	blx	r3
     fa0:	bd08      	pop	{r3, pc}

00000fa2 <_ZN20AVRSoftwareSPIOutputILh10ELh11ELh4EE7releaseEv>:

	// release the SPI line
	void release() { if(m_pSelect != NULL) { m_pSelect->release(); } } // FastPin<SELECT_PIN>::lo(); }
     fa2:	6800      	ldr	r0, [r0, #0]
     fa4:	b508      	push	{r3, lr}
     fa6:	b110      	cbz	r0, fae <_ZN20AVRSoftwareSPIOutputILh10ELh11ELh4EE7releaseEv+0xc>
     fa8:	6803      	ldr	r3, [r0, #0]
     faa:	685b      	ldr	r3, [r3, #4]
     fac:	4798      	blx	r3
     fae:	bd08      	pop	{r3, pc}

00000fb0 <_ZN15P9813ControllerILh10ELh11EL6EOrder10ELh4EE4initEv>:

	virtual void init() {
     fb0:	b510      	push	{r4, lr}
template<uint8_t PIN, uint32_t _MASK, typename _PDOR, typename _PSOR, typename _PCOR, typename _PTOR, typename _PDIR, typename _PDDR> class _ARMPIN { 
public:
	typedef volatile uint32_t * port_ptr_t;
	typedef uint32_t port_t;

	inline static void setOutput() { pinMode(PIN, OUTPUT); } // TODO: perform MUX config { _PDDR::r() |= _MASK; }
     fb2:	2101      	movs	r1, #1
     fb4:	4604      	mov	r4, r0
     fb6:	200a      	movs	r0, #10
     fb8:	f001 fd36 	bl	2a28 <pinMode>
     fbc:	200b      	movs	r0, #11
     fbe:	2101      	movs	r1, #1
     fc0:	f001 fd32 	bl	2a28 <pinMode>
	void init() {
		// set the pins to output and make sure the select is released (which apparently means hi?  This is a bit
		// confusing to me)
		FastPin<DATA_PIN>::setOutput();
		FastPin<CLOCK_PIN>::setOutput();
		release();
     fc4:	f104 0018 	add.w	r0, r4, #24
     fc8:	f7ff ffeb 	bl	fa2 <_ZN20AVRSoftwareSPIOutputILh10ELh11ELh4EE7releaseEv>
     fcc:	bd10      	pop	{r4, pc}
     fce:	ffff 4a2d 	vtbl.8	d20, {d15-d17}, d29

00000fd0 <_ZN20AVRSoftwareSPIOutputILh10ELh11ELh4EE9writeByteEh>:
	static void writeBytePostWait(uint8_t b) __attribute__((always_inline)) { writeByte(b); wait(); }

	static void writeWord(uint16_t w) __attribute__((always_inline)) { writeByte(w>>8); writeByte(w&0xFF); }

	// naive writeByte implelentation, simply calls writeBit on the 8 bits in the byte.
	static void writeByte(uint8_t b) {
     fd0:	4a2d      	ldr	r2, [pc, #180]	; (1088 <_ZN20AVRSoftwareSPIOutputILh10ELh11ELh4EE9writeByteEh+0xb8>)
     fd2:	4b2e      	ldr	r3, [pc, #184]	; (108c <_ZN20AVRSoftwareSPIOutputILh10ELh11ELh4EE9writeByteEh+0xbc>)
public:
	#define SPI_DELAY delaycycles< (SPI_SPEED-2) / 2>();

	// write the BIT'th bit out via spi, setting the data pin then strobing the clcok
	template <uint8_t BIT> __attribute__((always_inline, hot)) inline static void writeBit(uint8_t b) {
		if(b & (1 << BIT)) {
     fd4:	f010 0f80 	tst.w	r0, #128	; 0x80
     fd8:	f04f 0110 	mov.w	r1, #16
	inline static void setInput() { pinMode(PIN, INPUT); } // TODO: preform MUX config { _PDDR::r() &= ~_MASK; }

	inline static void hi() __attribute__ ((always_inline)) { _PSOR::r() = _MASK; }
     fdc:	bf14      	ite	ne
     fde:	6011      	strne	r1, [r2, #0]
	inline static void lo() __attribute__ ((always_inline)) { _PCOR::r() = _MASK; }
     fe0:	6019      	streq	r1, [r3, #0]
	typedef uint32_t port_t;

	inline static void setOutput() { pinMode(PIN, OUTPUT); } // TODO: perform MUX config { _PDDR::r() |= _MASK; }
	inline static void setInput() { pinMode(PIN, INPUT); } // TODO: preform MUX config { _PDDR::r() &= ~_MASK; }

	inline static void hi() __attribute__ ((always_inline)) { _PSOR::r() = _MASK; }
     fe2:	2140      	movs	r1, #64	; 0x40
     fe4:	6011      	str	r1, [r2, #0]
template<> __attribute__((always_inline)) inline void delaycycles<-4>() {}
template<> __attribute__((always_inline)) inline void delaycycles<-3>() {}
template<> __attribute__((always_inline)) inline void delaycycles<-2>() {}
template<> __attribute__((always_inline)) inline void delaycycles<-1>() {}
template<> __attribute__((always_inline)) inline void delaycycles<0>() {}
template<> __attribute__((always_inline)) inline void delaycycles<1>() {NOP;}
     fe6:	bf00      	nop
	inline static void lo() __attribute__ ((always_inline)) { _PCOR::r() = _MASK; }
     fe8:	6019      	str	r1, [r3, #0]
     fea:	bf00      	nop
     fec:	2110      	movs	r1, #16
     fee:	f010 0f40 	tst.w	r0, #64	; 0x40
	typedef uint32_t port_t;

	inline static void setOutput() { pinMode(PIN, OUTPUT); } // TODO: perform MUX config { _PDDR::r() |= _MASK; }
	inline static void setInput() { pinMode(PIN, INPUT); } // TODO: preform MUX config { _PDDR::r() &= ~_MASK; }

	inline static void hi() __attribute__ ((always_inline)) { _PSOR::r() = _MASK; }
     ff2:	bf14      	ite	ne
     ff4:	6011      	strne	r1, [r2, #0]
	inline static void lo() __attribute__ ((always_inline)) { _PCOR::r() = _MASK; }
     ff6:	6019      	streq	r1, [r3, #0]
	typedef uint32_t port_t;

	inline static void setOutput() { pinMode(PIN, OUTPUT); } // TODO: perform MUX config { _PDDR::r() |= _MASK; }
	inline static void setInput() { pinMode(PIN, INPUT); } // TODO: preform MUX config { _PDDR::r() &= ~_MASK; }

	inline static void hi() __attribute__ ((always_inline)) { _PSOR::r() = _MASK; }
     ff8:	2140      	movs	r1, #64	; 0x40
     ffa:	6011      	str	r1, [r2, #0]
     ffc:	bf00      	nop
	inline static void lo() __attribute__ ((always_inline)) { _PCOR::r() = _MASK; }
     ffe:	6019      	str	r1, [r3, #0]
    1000:	bf00      	nop
    1002:	2110      	movs	r1, #16
    1004:	f010 0f20 	tst.w	r0, #32
	typedef uint32_t port_t;

	inline static void setOutput() { pinMode(PIN, OUTPUT); } // TODO: perform MUX config { _PDDR::r() |= _MASK; }
	inline static void setInput() { pinMode(PIN, INPUT); } // TODO: preform MUX config { _PDDR::r() &= ~_MASK; }

	inline static void hi() __attribute__ ((always_inline)) { _PSOR::r() = _MASK; }
    1008:	bf14      	ite	ne
    100a:	6011      	strne	r1, [r2, #0]
	inline static void lo() __attribute__ ((always_inline)) { _PCOR::r() = _MASK; }
    100c:	6019      	streq	r1, [r3, #0]
	typedef uint32_t port_t;

	inline static void setOutput() { pinMode(PIN, OUTPUT); } // TODO: perform MUX config { _PDDR::r() |= _MASK; }
	inline static void setInput() { pinMode(PIN, INPUT); } // TODO: preform MUX config { _PDDR::r() &= ~_MASK; }

	inline static void hi() __attribute__ ((always_inline)) { _PSOR::r() = _MASK; }
    100e:	2140      	movs	r1, #64	; 0x40
    1010:	6011      	str	r1, [r2, #0]
    1012:	bf00      	nop
	inline static void lo() __attribute__ ((always_inline)) { _PCOR::r() = _MASK; }
    1014:	6019      	str	r1, [r3, #0]
    1016:	bf00      	nop
    1018:	2110      	movs	r1, #16
    101a:	f010 0f10 	tst.w	r0, #16
	typedef uint32_t port_t;

	inline static void setOutput() { pinMode(PIN, OUTPUT); } // TODO: perform MUX config { _PDDR::r() |= _MASK; }
	inline static void setInput() { pinMode(PIN, INPUT); } // TODO: preform MUX config { _PDDR::r() &= ~_MASK; }

	inline static void hi() __attribute__ ((always_inline)) { _PSOR::r() = _MASK; }
    101e:	bf14      	ite	ne
    1020:	6011      	strne	r1, [r2, #0]
	inline static void lo() __attribute__ ((always_inline)) { _PCOR::r() = _MASK; }
    1022:	6019      	streq	r1, [r3, #0]
	typedef uint32_t port_t;

	inline static void setOutput() { pinMode(PIN, OUTPUT); } // TODO: perform MUX config { _PDDR::r() |= _MASK; }
	inline static void setInput() { pinMode(PIN, INPUT); } // TODO: preform MUX config { _PDDR::r() &= ~_MASK; }

	inline static void hi() __attribute__ ((always_inline)) { _PSOR::r() = _MASK; }
    1024:	2140      	movs	r1, #64	; 0x40
    1026:	6011      	str	r1, [r2, #0]
    1028:	bf00      	nop
	inline static void lo() __attribute__ ((always_inline)) { _PCOR::r() = _MASK; }
    102a:	6019      	str	r1, [r3, #0]
    102c:	bf00      	nop
    102e:	2110      	movs	r1, #16
    1030:	f010 0f08 	tst.w	r0, #8
	typedef uint32_t port_t;

	inline static void setOutput() { pinMode(PIN, OUTPUT); } // TODO: perform MUX config { _PDDR::r() |= _MASK; }
	inline static void setInput() { pinMode(PIN, INPUT); } // TODO: preform MUX config { _PDDR::r() &= ~_MASK; }

	inline static void hi() __attribute__ ((always_inline)) { _PSOR::r() = _MASK; }
    1034:	bf14      	ite	ne
    1036:	6011      	strne	r1, [r2, #0]
	inline static void lo() __attribute__ ((always_inline)) { _PCOR::r() = _MASK; }
    1038:	6019      	streq	r1, [r3, #0]
	typedef uint32_t port_t;

	inline static void setOutput() { pinMode(PIN, OUTPUT); } // TODO: perform MUX config { _PDDR::r() |= _MASK; }
	inline static void setInput() { pinMode(PIN, INPUT); } // TODO: preform MUX config { _PDDR::r() &= ~_MASK; }

	inline static void hi() __attribute__ ((always_inline)) { _PSOR::r() = _MASK; }
    103a:	2140      	movs	r1, #64	; 0x40
    103c:	6011      	str	r1, [r2, #0]
    103e:	bf00      	nop
	inline static void lo() __attribute__ ((always_inline)) { _PCOR::r() = _MASK; }
    1040:	6019      	str	r1, [r3, #0]
    1042:	bf00      	nop
    1044:	2110      	movs	r1, #16
    1046:	f010 0f04 	tst.w	r0, #4
	typedef uint32_t port_t;

	inline static void setOutput() { pinMode(PIN, OUTPUT); } // TODO: perform MUX config { _PDDR::r() |= _MASK; }
	inline static void setInput() { pinMode(PIN, INPUT); } // TODO: preform MUX config { _PDDR::r() &= ~_MASK; }

	inline static void hi() __attribute__ ((always_inline)) { _PSOR::r() = _MASK; }
    104a:	bf14      	ite	ne
    104c:	6011      	strne	r1, [r2, #0]
	inline static void lo() __attribute__ ((always_inline)) { _PCOR::r() = _MASK; }
    104e:	6019      	streq	r1, [r3, #0]
	typedef uint32_t port_t;

	inline static void setOutput() { pinMode(PIN, OUTPUT); } // TODO: perform MUX config { _PDDR::r() |= _MASK; }
	inline static void setInput() { pinMode(PIN, INPUT); } // TODO: preform MUX config { _PDDR::r() &= ~_MASK; }

	inline static void hi() __attribute__ ((always_inline)) { _PSOR::r() = _MASK; }
    1050:	2140      	movs	r1, #64	; 0x40
    1052:	6011      	str	r1, [r2, #0]
    1054:	bf00      	nop
	inline static void lo() __attribute__ ((always_inline)) { _PCOR::r() = _MASK; }
    1056:	6019      	str	r1, [r3, #0]
    1058:	bf00      	nop
    105a:	2110      	movs	r1, #16
    105c:	f010 0f02 	tst.w	r0, #2
	typedef uint32_t port_t;

	inline static void setOutput() { pinMode(PIN, OUTPUT); } // TODO: perform MUX config { _PDDR::r() |= _MASK; }
	inline static void setInput() { pinMode(PIN, INPUT); } // TODO: preform MUX config { _PDDR::r() &= ~_MASK; }

	inline static void hi() __attribute__ ((always_inline)) { _PSOR::r() = _MASK; }
    1060:	bf14      	ite	ne
    1062:	6011      	strne	r1, [r2, #0]
	inline static void lo() __attribute__ ((always_inline)) { _PCOR::r() = _MASK; }
    1064:	6019      	streq	r1, [r3, #0]
	typedef uint32_t port_t;

	inline static void setOutput() { pinMode(PIN, OUTPUT); } // TODO: perform MUX config { _PDDR::r() |= _MASK; }
	inline static void setInput() { pinMode(PIN, INPUT); } // TODO: preform MUX config { _PDDR::r() &= ~_MASK; }

	inline static void hi() __attribute__ ((always_inline)) { _PSOR::r() = _MASK; }
    1066:	2140      	movs	r1, #64	; 0x40
    1068:	6011      	str	r1, [r2, #0]
    106a:	bf00      	nop
	inline static void lo() __attribute__ ((always_inline)) { _PCOR::r() = _MASK; }
    106c:	6019      	str	r1, [r3, #0]
    106e:	bf00      	nop
    1070:	2110      	movs	r1, #16
    1072:	f010 0f01 	tst.w	r0, #1
	typedef uint32_t port_t;

	inline static void setOutput() { pinMode(PIN, OUTPUT); } // TODO: perform MUX config { _PDDR::r() |= _MASK; }
	inline static void setInput() { pinMode(PIN, INPUT); } // TODO: preform MUX config { _PDDR::r() &= ~_MASK; }

	inline static void hi() __attribute__ ((always_inline)) { _PSOR::r() = _MASK; }
    1076:	bf14      	ite	ne
    1078:	6011      	strne	r1, [r2, #0]
	inline static void lo() __attribute__ ((always_inline)) { _PCOR::r() = _MASK; }
    107a:	6019      	streq	r1, [r3, #0]
	typedef uint32_t port_t;

	inline static void setOutput() { pinMode(PIN, OUTPUT); } // TODO: perform MUX config { _PDDR::r() |= _MASK; }
	inline static void setInput() { pinMode(PIN, INPUT); } // TODO: preform MUX config { _PDDR::r() &= ~_MASK; }

	inline static void hi() __attribute__ ((always_inline)) { _PSOR::r() = _MASK; }
    107c:	2140      	movs	r1, #64	; 0x40
    107e:	6011      	str	r1, [r2, #0]
    1080:	bf00      	nop
	inline static void lo() __attribute__ ((always_inline)) { _PCOR::r() = _MASK; }
    1082:	6019      	str	r1, [r3, #0]
    1084:	bf00      	nop
    1086:	4770      	bx	lr
    1088:	400ff084 	.word	0x400ff084
    108c:	400ff088 	.word	0x400ff088

00001090 <_ZN15P9813ControllerILh10ELh11EL6EOrder10ELh4EE13writeBoundaryEv.isra.26>:
template <uint8_t DATA_PIN, uint8_t CLOCK_PIN, EOrder RGB_ORDER = RGB, uint8_t SPI_SPEED = DATA_RATE_MHZ(15)>
class P9813Controller : public CLEDController {
	typedef SPIOutput<DATA_PIN, CLOCK_PIN, SPI_SPEED> SPI;
	SPI mSPI;

	void writeBoundary() { mSPI.writeWord(0); mSPI.writeWord(0); }
    1090:	b508      	push	{r3, lr}
	static void waitFully() __attribute__((always_inline)) { wait(); }

	static void writeByteNoWait(uint8_t b) __attribute__((always_inline)) { writeByte(b); }
	static void writeBytePostWait(uint8_t b) __attribute__((always_inline)) { writeByte(b); wait(); }

	static void writeWord(uint16_t w) __attribute__((always_inline)) { writeByte(w>>8); writeByte(w&0xFF); }
    1092:	2000      	movs	r0, #0
    1094:	f7ff ff9c 	bl	fd0 <_ZN20AVRSoftwareSPIOutputILh10ELh11ELh4EE9writeByteEh>
    1098:	2000      	movs	r0, #0
    109a:	f7ff ff99 	bl	fd0 <_ZN20AVRSoftwareSPIOutputILh10ELh11ELh4EE9writeByteEh>
    109e:	2000      	movs	r0, #0
    10a0:	f7ff ff96 	bl	fd0 <_ZN20AVRSoftwareSPIOutputILh10ELh11ELh4EE9writeByteEh>
    10a4:	2000      	movs	r0, #0
    10a6:	f7ff ff93 	bl	fd0 <_ZN20AVRSoftwareSPIOutputILh10ELh11ELh4EE9writeByteEh>
    10aa:	bd08      	pop	{r3, pc}

000010ac <_ZN20AVRSoftwareSPIOutputILh8ELh9ELh4EE6selectEv>:
	}
public:

	// select the SPI output (TODO: research whether this really means hi or lo.  Alt TODO: move select responsibility out of the SPI classes
	// entirely, make it up to the caller to remember to lock/select the line?)
	void select() { if(m_pSelect != NULL) { m_pSelect->select(); } } // FastPin<SELECT_PIN>::hi(); }
    10ac:	6800      	ldr	r0, [r0, #0]
    10ae:	b508      	push	{r3, lr}
    10b0:	b110      	cbz	r0, 10b8 <_ZN20AVRSoftwareSPIOutputILh8ELh9ELh4EE6selectEv+0xc>
    10b2:	6803      	ldr	r3, [r0, #0]
    10b4:	681b      	ldr	r3, [r3, #0]
    10b6:	4798      	blx	r3
    10b8:	bd08      	pop	{r3, pc}

000010ba <_ZN20AVRSoftwareSPIOutputILh8ELh9ELh4EE7releaseEv>:

	// release the SPI line
	void release() { if(m_pSelect != NULL) { m_pSelect->release(); } } // FastPin<SELECT_PIN>::lo(); }
    10ba:	6800      	ldr	r0, [r0, #0]
    10bc:	b508      	push	{r3, lr}
    10be:	b110      	cbz	r0, 10c6 <_ZN20AVRSoftwareSPIOutputILh8ELh9ELh4EE7releaseEv+0xc>
    10c0:	6803      	ldr	r3, [r0, #0]
    10c2:	685b      	ldr	r3, [r3, #4]
    10c4:	4798      	blx	r3
    10c6:	bd08      	pop	{r3, pc}

000010c8 <_ZN15P9813ControllerILh8ELh9EL6EOrder10ELh4EE4initEv>:
	}

public:
	P9813Controller() {}

	virtual void init() {
    10c8:	b510      	push	{r4, lr}
template<uint8_t PIN, uint32_t _MASK, typename _PDOR, typename _PSOR, typename _PCOR, typename _PTOR, typename _PDIR, typename _PDDR> class _ARMPIN { 
public:
	typedef volatile uint32_t * port_ptr_t;
	typedef uint32_t port_t;

	inline static void setOutput() { pinMode(PIN, OUTPUT); } // TODO: perform MUX config { _PDDR::r() |= _MASK; }
    10ca:	2101      	movs	r1, #1
    10cc:	4604      	mov	r4, r0
    10ce:	2008      	movs	r0, #8
    10d0:	f001 fcaa 	bl	2a28 <pinMode>
    10d4:	2009      	movs	r0, #9
    10d6:	2101      	movs	r1, #1
    10d8:	f001 fca6 	bl	2a28 <pinMode>
	void init() {
		// set the pins to output and make sure the select is released (which apparently means hi?  This is a bit
		// confusing to me)
		FastPin<DATA_PIN>::setOutput();
		FastPin<CLOCK_PIN>::setOutput();
		release();
    10dc:	f104 0018 	add.w	r0, r4, #24
    10e0:	f7ff ffeb 	bl	10ba <_ZN20AVRSoftwareSPIOutputILh8ELh9ELh4EE7releaseEv>
    10e4:	bd10      	pop	{r4, pc}
    10e6:	ffff f010 	vshr.u32	d31, d0, #1

000010e8 <_ZN20AVRSoftwareSPIOutputILh8ELh9ELh4EE9writeByteEh>:
public:
	#define SPI_DELAY delaycycles< (SPI_SPEED-2) / 2>();

	// write the BIT'th bit out via spi, setting the data pin then strobing the clcok
	template <uint8_t BIT> __attribute__((always_inline, hot)) inline static void writeBit(uint8_t b) {
		if(b & (1 << BIT)) {
    10e8:	f010 0f80 	tst.w	r0, #128	; 0x80
	static void writeBytePostWait(uint8_t b) __attribute__((always_inline)) { writeByte(b); wait(); }

	static void writeWord(uint16_t w) __attribute__((always_inline)) { writeByte(w>>8); writeByte(w&0xFF); }

	// naive writeByte implelentation, simply calls writeBit on the 8 bits in the byte.
	static void writeByte(uint8_t b) {
    10ec:	b510      	push	{r4, lr}
    10ee:	4a2c      	ldr	r2, [pc, #176]	; (11a0 <_ZN20AVRSoftwareSPIOutputILh8ELh9ELh4EE9writeByteEh+0xb8>)
	inline static void setInput() { pinMode(PIN, INPUT); } // TODO: preform MUX config { _PDDR::r() &= ~_MASK; }

	inline static void hi() __attribute__ ((always_inline)) { _PSOR::r() = _MASK; }
    10f0:	bf14      	ite	ne
    10f2:	4c2c      	ldrne	r4, [pc, #176]	; (11a4 <_ZN20AVRSoftwareSPIOutputILh8ELh9ELh4EE9writeByteEh+0xbc>)
	inline static void lo() __attribute__ ((always_inline)) { _PCOR::r() = _MASK; }
    10f4:	4c2c      	ldreq	r4, [pc, #176]	; (11a8 <_ZN20AVRSoftwareSPIOutputILh8ELh9ELh4EE9writeByteEh+0xc0>)
    10f6:	4b2d      	ldr	r3, [pc, #180]	; (11ac <_ZN20AVRSoftwareSPIOutputILh8ELh9ELh4EE9writeByteEh+0xc4>)
    10f8:	2108      	movs	r1, #8
    10fa:	6021      	str	r1, [r4, #0]
	typedef uint32_t port_t;

	inline static void setOutput() { pinMode(PIN, OUTPUT); } // TODO: perform MUX config { _PDDR::r() |= _MASK; }
	inline static void setInput() { pinMode(PIN, INPUT); } // TODO: preform MUX config { _PDDR::r() &= ~_MASK; }

	inline static void hi() __attribute__ ((always_inline)) { _PSOR::r() = _MASK; }
    10fc:	6011      	str	r1, [r2, #0]
    10fe:	bf00      	nop
	inline static void lo() __attribute__ ((always_inline)) { _PCOR::r() = _MASK; }
    1100:	6019      	str	r1, [r3, #0]
    1102:	bf00      	nop
public:
	#define SPI_DELAY delaycycles< (SPI_SPEED-2) / 2>();

	// write the BIT'th bit out via spi, setting the data pin then strobing the clcok
	template <uint8_t BIT> __attribute__((always_inline, hot)) inline static void writeBit(uint8_t b) {
		if(b & (1 << BIT)) {
    1104:	f010 0f40 	tst.w	r0, #64	; 0x40
	typedef uint32_t port_t;

	inline static void setOutput() { pinMode(PIN, OUTPUT); } // TODO: perform MUX config { _PDDR::r() |= _MASK; }
	inline static void setInput() { pinMode(PIN, INPUT); } // TODO: preform MUX config { _PDDR::r() &= ~_MASK; }

	inline static void hi() __attribute__ ((always_inline)) { _PSOR::r() = _MASK; }
    1108:	bf14      	ite	ne
    110a:	4c26      	ldrne	r4, [pc, #152]	; (11a4 <_ZN20AVRSoftwareSPIOutputILh8ELh9ELh4EE9writeByteEh+0xbc>)
	inline static void lo() __attribute__ ((always_inline)) { _PCOR::r() = _MASK; }
    110c:	4c26      	ldreq	r4, [pc, #152]	; (11a8 <_ZN20AVRSoftwareSPIOutputILh8ELh9ELh4EE9writeByteEh+0xc0>)
    110e:	2108      	movs	r1, #8
    1110:	6021      	str	r1, [r4, #0]
	typedef uint32_t port_t;

	inline static void setOutput() { pinMode(PIN, OUTPUT); } // TODO: perform MUX config { _PDDR::r() |= _MASK; }
	inline static void setInput() { pinMode(PIN, INPUT); } // TODO: preform MUX config { _PDDR::r() &= ~_MASK; }

	inline static void hi() __attribute__ ((always_inline)) { _PSOR::r() = _MASK; }
    1112:	6011      	str	r1, [r2, #0]
    1114:	bf00      	nop
	inline static void lo() __attribute__ ((always_inline)) { _PCOR::r() = _MASK; }
    1116:	6019      	str	r1, [r3, #0]
    1118:	bf00      	nop
    111a:	f010 0f20 	tst.w	r0, #32
	typedef uint32_t port_t;

	inline static void setOutput() { pinMode(PIN, OUTPUT); } // TODO: perform MUX config { _PDDR::r() |= _MASK; }
	inline static void setInput() { pinMode(PIN, INPUT); } // TODO: preform MUX config { _PDDR::r() &= ~_MASK; }

	inline static void hi() __attribute__ ((always_inline)) { _PSOR::r() = _MASK; }
    111e:	bf14      	ite	ne
    1120:	4c20      	ldrne	r4, [pc, #128]	; (11a4 <_ZN20AVRSoftwareSPIOutputILh8ELh9ELh4EE9writeByteEh+0xbc>)
	inline static void lo() __attribute__ ((always_inline)) { _PCOR::r() = _MASK; }
    1122:	4c21      	ldreq	r4, [pc, #132]	; (11a8 <_ZN20AVRSoftwareSPIOutputILh8ELh9ELh4EE9writeByteEh+0xc0>)
    1124:	2108      	movs	r1, #8
    1126:	6021      	str	r1, [r4, #0]
	typedef uint32_t port_t;

	inline static void setOutput() { pinMode(PIN, OUTPUT); } // TODO: perform MUX config { _PDDR::r() |= _MASK; }
	inline static void setInput() { pinMode(PIN, INPUT); } // TODO: preform MUX config { _PDDR::r() &= ~_MASK; }

	inline static void hi() __attribute__ ((always_inline)) { _PSOR::r() = _MASK; }
    1128:	6011      	str	r1, [r2, #0]
    112a:	bf00      	nop
	inline static void lo() __attribute__ ((always_inline)) { _PCOR::r() = _MASK; }
    112c:	6019      	str	r1, [r3, #0]
    112e:	bf00      	nop
    1130:	f010 0f10 	tst.w	r0, #16
	typedef uint32_t port_t;

	inline static void setOutput() { pinMode(PIN, OUTPUT); } // TODO: perform MUX config { _PDDR::r() |= _MASK; }
	inline static void setInput() { pinMode(PIN, INPUT); } // TODO: preform MUX config { _PDDR::r() &= ~_MASK; }

	inline static void hi() __attribute__ ((always_inline)) { _PSOR::r() = _MASK; }
    1134:	bf14      	ite	ne
    1136:	4c1b      	ldrne	r4, [pc, #108]	; (11a4 <_ZN20AVRSoftwareSPIOutputILh8ELh9ELh4EE9writeByteEh+0xbc>)
	inline static void lo() __attribute__ ((always_inline)) { _PCOR::r() = _MASK; }
    1138:	4c1b      	ldreq	r4, [pc, #108]	; (11a8 <_ZN20AVRSoftwareSPIOutputILh8ELh9ELh4EE9writeByteEh+0xc0>)
    113a:	2108      	movs	r1, #8
    113c:	6021      	str	r1, [r4, #0]
	typedef uint32_t port_t;

	inline static void setOutput() { pinMode(PIN, OUTPUT); } // TODO: perform MUX config { _PDDR::r() |= _MASK; }
	inline static void setInput() { pinMode(PIN, INPUT); } // TODO: preform MUX config { _PDDR::r() &= ~_MASK; }

	inline static void hi() __attribute__ ((always_inline)) { _PSOR::r() = _MASK; }
    113e:	6011      	str	r1, [r2, #0]
    1140:	bf00      	nop
	inline static void lo() __attribute__ ((always_inline)) { _PCOR::r() = _MASK; }
    1142:	6019      	str	r1, [r3, #0]
    1144:	bf00      	nop
    1146:	f010 0f08 	tst.w	r0, #8
	typedef uint32_t port_t;

	inline static void setOutput() { pinMode(PIN, OUTPUT); } // TODO: perform MUX config { _PDDR::r() |= _MASK; }
	inline static void setInput() { pinMode(PIN, INPUT); } // TODO: preform MUX config { _PDDR::r() &= ~_MASK; }

	inline static void hi() __attribute__ ((always_inline)) { _PSOR::r() = _MASK; }
    114a:	bf14      	ite	ne
    114c:	4c15      	ldrne	r4, [pc, #84]	; (11a4 <_ZN20AVRSoftwareSPIOutputILh8ELh9ELh4EE9writeByteEh+0xbc>)
	inline static void lo() __attribute__ ((always_inline)) { _PCOR::r() = _MASK; }
    114e:	4c16      	ldreq	r4, [pc, #88]	; (11a8 <_ZN20AVRSoftwareSPIOutputILh8ELh9ELh4EE9writeByteEh+0xc0>)
    1150:	2108      	movs	r1, #8
    1152:	6021      	str	r1, [r4, #0]
	typedef uint32_t port_t;

	inline static void setOutput() { pinMode(PIN, OUTPUT); } // TODO: perform MUX config { _PDDR::r() |= _MASK; }
	inline static void setInput() { pinMode(PIN, INPUT); } // TODO: preform MUX config { _PDDR::r() &= ~_MASK; }

	inline static void hi() __attribute__ ((always_inline)) { _PSOR::r() = _MASK; }
    1154:	6011      	str	r1, [r2, #0]
    1156:	bf00      	nop
	inline static void lo() __attribute__ ((always_inline)) { _PCOR::r() = _MASK; }
    1158:	6019      	str	r1, [r3, #0]
    115a:	bf00      	nop
    115c:	f010 0f04 	tst.w	r0, #4
	typedef uint32_t port_t;

	inline static void setOutput() { pinMode(PIN, OUTPUT); } // TODO: perform MUX config { _PDDR::r() |= _MASK; }
	inline static void setInput() { pinMode(PIN, INPUT); } // TODO: preform MUX config { _PDDR::r() &= ~_MASK; }

	inline static void hi() __attribute__ ((always_inline)) { _PSOR::r() = _MASK; }
    1160:	bf14      	ite	ne
    1162:	4c10      	ldrne	r4, [pc, #64]	; (11a4 <_ZN20AVRSoftwareSPIOutputILh8ELh9ELh4EE9writeByteEh+0xbc>)
	inline static void lo() __attribute__ ((always_inline)) { _PCOR::r() = _MASK; }
    1164:	4c10      	ldreq	r4, [pc, #64]	; (11a8 <_ZN20AVRSoftwareSPIOutputILh8ELh9ELh4EE9writeByteEh+0xc0>)
    1166:	2108      	movs	r1, #8
    1168:	6021      	str	r1, [r4, #0]
	typedef uint32_t port_t;

	inline static void setOutput() { pinMode(PIN, OUTPUT); } // TODO: perform MUX config { _PDDR::r() |= _MASK; }
	inline static void setInput() { pinMode(PIN, INPUT); } // TODO: preform MUX config { _PDDR::r() &= ~_MASK; }

	inline static void hi() __attribute__ ((always_inline)) { _PSOR::r() = _MASK; }
    116a:	6011      	str	r1, [r2, #0]
    116c:	bf00      	nop
	inline static void lo() __attribute__ ((always_inline)) { _PCOR::r() = _MASK; }
    116e:	6019      	str	r1, [r3, #0]
    1170:	bf00      	nop
    1172:	f010 0f02 	tst.w	r0, #2
	typedef uint32_t port_t;

	inline static void setOutput() { pinMode(PIN, OUTPUT); } // TODO: perform MUX config { _PDDR::r() |= _MASK; }
	inline static void setInput() { pinMode(PIN, INPUT); } // TODO: preform MUX config { _PDDR::r() &= ~_MASK; }

	inline static void hi() __attribute__ ((always_inline)) { _PSOR::r() = _MASK; }
    1176:	bf14      	ite	ne
    1178:	4c0a      	ldrne	r4, [pc, #40]	; (11a4 <_ZN20AVRSoftwareSPIOutputILh8ELh9ELh4EE9writeByteEh+0xbc>)
	inline static void lo() __attribute__ ((always_inline)) { _PCOR::r() = _MASK; }
    117a:	4c0b      	ldreq	r4, [pc, #44]	; (11a8 <_ZN20AVRSoftwareSPIOutputILh8ELh9ELh4EE9writeByteEh+0xc0>)
    117c:	2108      	movs	r1, #8
    117e:	6021      	str	r1, [r4, #0]
	typedef uint32_t port_t;

	inline static void setOutput() { pinMode(PIN, OUTPUT); } // TODO: perform MUX config { _PDDR::r() |= _MASK; }
	inline static void setInput() { pinMode(PIN, INPUT); } // TODO: preform MUX config { _PDDR::r() &= ~_MASK; }

	inline static void hi() __attribute__ ((always_inline)) { _PSOR::r() = _MASK; }
    1180:	6011      	str	r1, [r2, #0]
    1182:	bf00      	nop
	inline static void lo() __attribute__ ((always_inline)) { _PCOR::r() = _MASK; }
    1184:	6019      	str	r1, [r3, #0]
    1186:	bf00      	nop
    1188:	f010 0f01 	tst.w	r0, #1
	typedef uint32_t port_t;

	inline static void setOutput() { pinMode(PIN, OUTPUT); } // TODO: perform MUX config { _PDDR::r() |= _MASK; }
	inline static void setInput() { pinMode(PIN, INPUT); } // TODO: preform MUX config { _PDDR::r() &= ~_MASK; }

	inline static void hi() __attribute__ ((always_inline)) { _PSOR::r() = _MASK; }
    118c:	bf14      	ite	ne
    118e:	4805      	ldrne	r0, [pc, #20]	; (11a4 <_ZN20AVRSoftwareSPIOutputILh8ELh9ELh4EE9writeByteEh+0xbc>)
	inline static void lo() __attribute__ ((always_inline)) { _PCOR::r() = _MASK; }
    1190:	4805      	ldreq	r0, [pc, #20]	; (11a8 <_ZN20AVRSoftwareSPIOutputILh8ELh9ELh4EE9writeByteEh+0xc0>)
    1192:	2108      	movs	r1, #8
    1194:	6001      	str	r1, [r0, #0]
	typedef uint32_t port_t;

	inline static void setOutput() { pinMode(PIN, OUTPUT); } // TODO: perform MUX config { _PDDR::r() |= _MASK; }
	inline static void setInput() { pinMode(PIN, INPUT); } // TODO: preform MUX config { _PDDR::r() &= ~_MASK; }

	inline static void hi() __attribute__ ((always_inline)) { _PSOR::r() = _MASK; }
    1196:	6011      	str	r1, [r2, #0]
    1198:	bf00      	nop
	inline static void lo() __attribute__ ((always_inline)) { _PCOR::r() = _MASK; }
    119a:	6019      	str	r1, [r3, #0]
    119c:	bf00      	nop
    119e:	bd10      	pop	{r4, pc}
    11a0:	400ff084 	.word	0x400ff084
    11a4:	400ff0c4 	.word	0x400ff0c4
    11a8:	400ff0c8 	.word	0x400ff0c8
    11ac:	400ff088 	.word	0x400ff088

000011b0 <_ZN15P9813ControllerILh8ELh9EL6EOrder10ELh4EE13writeBoundaryEv.isra.29>:
template <uint8_t DATA_PIN, uint8_t CLOCK_PIN, EOrder RGB_ORDER = RGB, uint8_t SPI_SPEED = DATA_RATE_MHZ(15)>
class P9813Controller : public CLEDController {
	typedef SPIOutput<DATA_PIN, CLOCK_PIN, SPI_SPEED> SPI;
	SPI mSPI;

	void writeBoundary() { mSPI.writeWord(0); mSPI.writeWord(0); }
    11b0:	b508      	push	{r3, lr}
	static void waitFully() __attribute__((always_inline)) { wait(); }

	static void writeByteNoWait(uint8_t b) __attribute__((always_inline)) { writeByte(b); }
	static void writeBytePostWait(uint8_t b) __attribute__((always_inline)) { writeByte(b); wait(); }

	static void writeWord(uint16_t w) __attribute__((always_inline)) { writeByte(w>>8); writeByte(w&0xFF); }
    11b2:	2000      	movs	r0, #0
    11b4:	f7ff ff98 	bl	10e8 <_ZN20AVRSoftwareSPIOutputILh8ELh9ELh4EE9writeByteEh>
    11b8:	2000      	movs	r0, #0
    11ba:	f7ff ff95 	bl	10e8 <_ZN20AVRSoftwareSPIOutputILh8ELh9ELh4EE9writeByteEh>
    11be:	2000      	movs	r0, #0
    11c0:	f7ff ff92 	bl	10e8 <_ZN20AVRSoftwareSPIOutputILh8ELh9ELh4EE9writeByteEh>
    11c4:	2000      	movs	r0, #0
    11c6:	f7ff ff8f 	bl	10e8 <_ZN20AVRSoftwareSPIOutputILh8ELh9ELh4EE9writeByteEh>
    11ca:	bd08      	pop	{r3, pc}

000011cc <_ZN20AVRSoftwareSPIOutputILh6ELh7ELh4EE6selectEv>:
	}
public:

	// select the SPI output (TODO: research whether this really means hi or lo.  Alt TODO: move select responsibility out of the SPI classes
	// entirely, make it up to the caller to remember to lock/select the line?)
	void select() { if(m_pSelect != NULL) { m_pSelect->select(); } } // FastPin<SELECT_PIN>::hi(); }
    11cc:	6800      	ldr	r0, [r0, #0]
    11ce:	b508      	push	{r3, lr}
    11d0:	b110      	cbz	r0, 11d8 <_ZN20AVRSoftwareSPIOutputILh6ELh7ELh4EE6selectEv+0xc>
    11d2:	6803      	ldr	r3, [r0, #0]
    11d4:	681b      	ldr	r3, [r3, #0]
    11d6:	4798      	blx	r3
    11d8:	bd08      	pop	{r3, pc}

000011da <_ZN20AVRSoftwareSPIOutputILh6ELh7ELh4EE7releaseEv>:

	// release the SPI line
	void release() { if(m_pSelect != NULL) { m_pSelect->release(); } } // FastPin<SELECT_PIN>::lo(); }
    11da:	6800      	ldr	r0, [r0, #0]
    11dc:	b508      	push	{r3, lr}
    11de:	b110      	cbz	r0, 11e6 <_ZN20AVRSoftwareSPIOutputILh6ELh7ELh4EE7releaseEv+0xc>
    11e0:	6803      	ldr	r3, [r0, #0]
    11e2:	685b      	ldr	r3, [r3, #4]
    11e4:	4798      	blx	r3
    11e6:	bd08      	pop	{r3, pc}

000011e8 <_ZN15P9813ControllerILh6ELh7EL6EOrder10ELh4EE4initEv>:
	}

public:
	P9813Controller() {}

	virtual void init() {
    11e8:	b510      	push	{r4, lr}
template<uint8_t PIN, uint32_t _MASK, typename _PDOR, typename _PSOR, typename _PCOR, typename _PTOR, typename _PDIR, typename _PDDR> class _ARMPIN { 
public:
	typedef volatile uint32_t * port_ptr_t;
	typedef uint32_t port_t;

	inline static void setOutput() { pinMode(PIN, OUTPUT); } // TODO: perform MUX config { _PDDR::r() |= _MASK; }
    11ea:	2101      	movs	r1, #1
    11ec:	4604      	mov	r4, r0
    11ee:	2006      	movs	r0, #6
    11f0:	f001 fc1a 	bl	2a28 <pinMode>
    11f4:	2007      	movs	r0, #7
    11f6:	2101      	movs	r1, #1
    11f8:	f001 fc16 	bl	2a28 <pinMode>
	void init() {
		// set the pins to output and make sure the select is released (which apparently means hi?  This is a bit
		// confusing to me)
		FastPin<DATA_PIN>::setOutput();
		FastPin<CLOCK_PIN>::setOutput();
		release();
    11fc:	f104 0018 	add.w	r0, r4, #24
    1200:	f7ff ffeb 	bl	11da <_ZN20AVRSoftwareSPIOutputILh6ELh7ELh4EE7releaseEv>
    1204:	bd10      	pop	{r4, pc}
    1206:	ffff 4a2d 	vtbl.8	d20, {d15-d17}, d29

00001208 <_ZN20AVRSoftwareSPIOutputILh6ELh7ELh4EE9writeByteEh>:
	static void writeBytePostWait(uint8_t b) __attribute__((always_inline)) { writeByte(b); wait(); }

	static void writeWord(uint16_t w) __attribute__((always_inline)) { writeByte(w>>8); writeByte(w&0xFF); }

	// naive writeByte implelentation, simply calls writeBit on the 8 bits in the byte.
	static void writeByte(uint8_t b) {
    1208:	4a2d      	ldr	r2, [pc, #180]	; (12c0 <_ZN20AVRSoftwareSPIOutputILh6ELh7ELh4EE9writeByteEh+0xb8>)
    120a:	4b2e      	ldr	r3, [pc, #184]	; (12c4 <_ZN20AVRSoftwareSPIOutputILh6ELh7ELh4EE9writeByteEh+0xbc>)
public:
	#define SPI_DELAY delaycycles< (SPI_SPEED-2) / 2>();

	// write the BIT'th bit out via spi, setting the data pin then strobing the clcok
	template <uint8_t BIT> __attribute__((always_inline, hot)) inline static void writeBit(uint8_t b) {
		if(b & (1 << BIT)) {
    120c:	f010 0f80 	tst.w	r0, #128	; 0x80
    1210:	f04f 0110 	mov.w	r1, #16
	inline static void setInput() { pinMode(PIN, INPUT); } // TODO: preform MUX config { _PDDR::r() &= ~_MASK; }

	inline static void hi() __attribute__ ((always_inline)) { _PSOR::r() = _MASK; }
    1214:	bf14      	ite	ne
    1216:	6011      	strne	r1, [r2, #0]
	inline static void lo() __attribute__ ((always_inline)) { _PCOR::r() = _MASK; }
    1218:	6019      	streq	r1, [r3, #0]
	typedef uint32_t port_t;

	inline static void setOutput() { pinMode(PIN, OUTPUT); } // TODO: perform MUX config { _PDDR::r() |= _MASK; }
	inline static void setInput() { pinMode(PIN, INPUT); } // TODO: preform MUX config { _PDDR::r() &= ~_MASK; }

	inline static void hi() __attribute__ ((always_inline)) { _PSOR::r() = _MASK; }
    121a:	2104      	movs	r1, #4
    121c:	6011      	str	r1, [r2, #0]
    121e:	bf00      	nop
	inline static void lo() __attribute__ ((always_inline)) { _PCOR::r() = _MASK; }
    1220:	6019      	str	r1, [r3, #0]
    1222:	bf00      	nop
    1224:	2110      	movs	r1, #16
    1226:	f010 0f40 	tst.w	r0, #64	; 0x40
	typedef uint32_t port_t;

	inline static void setOutput() { pinMode(PIN, OUTPUT); } // TODO: perform MUX config { _PDDR::r() |= _MASK; }
	inline static void setInput() { pinMode(PIN, INPUT); } // TODO: preform MUX config { _PDDR::r() &= ~_MASK; }

	inline static void hi() __attribute__ ((always_inline)) { _PSOR::r() = _MASK; }
    122a:	bf14      	ite	ne
    122c:	6011      	strne	r1, [r2, #0]
	inline static void lo() __attribute__ ((always_inline)) { _PCOR::r() = _MASK; }
    122e:	6019      	streq	r1, [r3, #0]
	typedef uint32_t port_t;

	inline static void setOutput() { pinMode(PIN, OUTPUT); } // TODO: perform MUX config { _PDDR::r() |= _MASK; }
	inline static void setInput() { pinMode(PIN, INPUT); } // TODO: preform MUX config { _PDDR::r() &= ~_MASK; }

	inline static void hi() __attribute__ ((always_inline)) { _PSOR::r() = _MASK; }
    1230:	2104      	movs	r1, #4
    1232:	6011      	str	r1, [r2, #0]
    1234:	bf00      	nop
	inline static void lo() __attribute__ ((always_inline)) { _PCOR::r() = _MASK; }
    1236:	6019      	str	r1, [r3, #0]
    1238:	bf00      	nop
    123a:	2110      	movs	r1, #16
    123c:	f010 0f20 	tst.w	r0, #32
	typedef uint32_t port_t;

	inline static void setOutput() { pinMode(PIN, OUTPUT); } // TODO: perform MUX config { _PDDR::r() |= _MASK; }
	inline static void setInput() { pinMode(PIN, INPUT); } // TODO: preform MUX config { _PDDR::r() &= ~_MASK; }

	inline static void hi() __attribute__ ((always_inline)) { _PSOR::r() = _MASK; }
    1240:	bf14      	ite	ne
    1242:	6011      	strne	r1, [r2, #0]
	inline static void lo() __attribute__ ((always_inline)) { _PCOR::r() = _MASK; }
    1244:	6019      	streq	r1, [r3, #0]
	typedef uint32_t port_t;

	inline static void setOutput() { pinMode(PIN, OUTPUT); } // TODO: perform MUX config { _PDDR::r() |= _MASK; }
	inline static void setInput() { pinMode(PIN, INPUT); } // TODO: preform MUX config { _PDDR::r() &= ~_MASK; }

	inline static void hi() __attribute__ ((always_inline)) { _PSOR::r() = _MASK; }
    1246:	2104      	movs	r1, #4
    1248:	6011      	str	r1, [r2, #0]
    124a:	bf00      	nop
	inline static void lo() __attribute__ ((always_inline)) { _PCOR::r() = _MASK; }
    124c:	6019      	str	r1, [r3, #0]
    124e:	bf00      	nop
    1250:	2110      	movs	r1, #16
    1252:	f010 0f10 	tst.w	r0, #16
	typedef uint32_t port_t;

	inline static void setOutput() { pinMode(PIN, OUTPUT); } // TODO: perform MUX config { _PDDR::r() |= _MASK; }
	inline static void setInput() { pinMode(PIN, INPUT); } // TODO: preform MUX config { _PDDR::r() &= ~_MASK; }

	inline static void hi() __attribute__ ((always_inline)) { _PSOR::r() = _MASK; }
    1256:	bf14      	ite	ne
    1258:	6011      	strne	r1, [r2, #0]
	inline static void lo() __attribute__ ((always_inline)) { _PCOR::r() = _MASK; }
    125a:	6019      	streq	r1, [r3, #0]
	typedef uint32_t port_t;

	inline static void setOutput() { pinMode(PIN, OUTPUT); } // TODO: perform MUX config { _PDDR::r() |= _MASK; }
	inline static void setInput() { pinMode(PIN, INPUT); } // TODO: preform MUX config { _PDDR::r() &= ~_MASK; }

	inline static void hi() __attribute__ ((always_inline)) { _PSOR::r() = _MASK; }
    125c:	2104      	movs	r1, #4
    125e:	6011      	str	r1, [r2, #0]
    1260:	bf00      	nop
	inline static void lo() __attribute__ ((always_inline)) { _PCOR::r() = _MASK; }
    1262:	6019      	str	r1, [r3, #0]
    1264:	bf00      	nop
    1266:	2110      	movs	r1, #16
    1268:	f010 0f08 	tst.w	r0, #8
	typedef uint32_t port_t;

	inline static void setOutput() { pinMode(PIN, OUTPUT); } // TODO: perform MUX config { _PDDR::r() |= _MASK; }
	inline static void setInput() { pinMode(PIN, INPUT); } // TODO: preform MUX config { _PDDR::r() &= ~_MASK; }

	inline static void hi() __attribute__ ((always_inline)) { _PSOR::r() = _MASK; }
    126c:	bf14      	ite	ne
    126e:	6011      	strne	r1, [r2, #0]
	inline static void lo() __attribute__ ((always_inline)) { _PCOR::r() = _MASK; }
    1270:	6019      	streq	r1, [r3, #0]
	typedef uint32_t port_t;

	inline static void setOutput() { pinMode(PIN, OUTPUT); } // TODO: perform MUX config { _PDDR::r() |= _MASK; }
	inline static void setInput() { pinMode(PIN, INPUT); } // TODO: preform MUX config { _PDDR::r() &= ~_MASK; }

	inline static void hi() __attribute__ ((always_inline)) { _PSOR::r() = _MASK; }
    1272:	2104      	movs	r1, #4
    1274:	6011      	str	r1, [r2, #0]
    1276:	bf00      	nop
	inline static void lo() __attribute__ ((always_inline)) { _PCOR::r() = _MASK; }
    1278:	6019      	str	r1, [r3, #0]
    127a:	bf00      	nop
    127c:	2110      	movs	r1, #16
    127e:	f010 0f04 	tst.w	r0, #4
	typedef uint32_t port_t;

	inline static void setOutput() { pinMode(PIN, OUTPUT); } // TODO: perform MUX config { _PDDR::r() |= _MASK; }
	inline static void setInput() { pinMode(PIN, INPUT); } // TODO: preform MUX config { _PDDR::r() &= ~_MASK; }

	inline static void hi() __attribute__ ((always_inline)) { _PSOR::r() = _MASK; }
    1282:	bf14      	ite	ne
    1284:	6011      	strne	r1, [r2, #0]
	inline static void lo() __attribute__ ((always_inline)) { _PCOR::r() = _MASK; }
    1286:	6019      	streq	r1, [r3, #0]
	typedef uint32_t port_t;

	inline static void setOutput() { pinMode(PIN, OUTPUT); } // TODO: perform MUX config { _PDDR::r() |= _MASK; }
	inline static void setInput() { pinMode(PIN, INPUT); } // TODO: preform MUX config { _PDDR::r() &= ~_MASK; }

	inline static void hi() __attribute__ ((always_inline)) { _PSOR::r() = _MASK; }
    1288:	2104      	movs	r1, #4
    128a:	6011      	str	r1, [r2, #0]
    128c:	bf00      	nop
	inline static void lo() __attribute__ ((always_inline)) { _PCOR::r() = _MASK; }
    128e:	6019      	str	r1, [r3, #0]
    1290:	bf00      	nop
    1292:	2110      	movs	r1, #16
    1294:	f010 0f02 	tst.w	r0, #2
	typedef uint32_t port_t;

	inline static void setOutput() { pinMode(PIN, OUTPUT); } // TODO: perform MUX config { _PDDR::r() |= _MASK; }
	inline static void setInput() { pinMode(PIN, INPUT); } // TODO: preform MUX config { _PDDR::r() &= ~_MASK; }

	inline static void hi() __attribute__ ((always_inline)) { _PSOR::r() = _MASK; }
    1298:	bf14      	ite	ne
    129a:	6011      	strne	r1, [r2, #0]
	inline static void lo() __attribute__ ((always_inline)) { _PCOR::r() = _MASK; }
    129c:	6019      	streq	r1, [r3, #0]
	typedef uint32_t port_t;

	inline static void setOutput() { pinMode(PIN, OUTPUT); } // TODO: perform MUX config { _PDDR::r() |= _MASK; }
	inline static void setInput() { pinMode(PIN, INPUT); } // TODO: preform MUX config { _PDDR::r() &= ~_MASK; }

	inline static void hi() __attribute__ ((always_inline)) { _PSOR::r() = _MASK; }
    129e:	2104      	movs	r1, #4
    12a0:	6011      	str	r1, [r2, #0]
    12a2:	bf00      	nop
	inline static void lo() __attribute__ ((always_inline)) { _PCOR::r() = _MASK; }
    12a4:	6019      	str	r1, [r3, #0]
    12a6:	bf00      	nop
    12a8:	2110      	movs	r1, #16
    12aa:	f010 0f01 	tst.w	r0, #1
	typedef uint32_t port_t;

	inline static void setOutput() { pinMode(PIN, OUTPUT); } // TODO: perform MUX config { _PDDR::r() |= _MASK; }
	inline static void setInput() { pinMode(PIN, INPUT); } // TODO: preform MUX config { _PDDR::r() &= ~_MASK; }

	inline static void hi() __attribute__ ((always_inline)) { _PSOR::r() = _MASK; }
    12ae:	bf14      	ite	ne
    12b0:	6011      	strne	r1, [r2, #0]
	inline static void lo() __attribute__ ((always_inline)) { _PCOR::r() = _MASK; }
    12b2:	6019      	streq	r1, [r3, #0]
	typedef uint32_t port_t;

	inline static void setOutput() { pinMode(PIN, OUTPUT); } // TODO: perform MUX config { _PDDR::r() |= _MASK; }
	inline static void setInput() { pinMode(PIN, INPUT); } // TODO: preform MUX config { _PDDR::r() &= ~_MASK; }

	inline static void hi() __attribute__ ((always_inline)) { _PSOR::r() = _MASK; }
    12b4:	2104      	movs	r1, #4
    12b6:	6011      	str	r1, [r2, #0]
    12b8:	bf00      	nop
	inline static void lo() __attribute__ ((always_inline)) { _PCOR::r() = _MASK; }
    12ba:	6019      	str	r1, [r3, #0]
    12bc:	bf00      	nop
    12be:	4770      	bx	lr
    12c0:	400ff0c4 	.word	0x400ff0c4
    12c4:	400ff0c8 	.word	0x400ff0c8

000012c8 <_ZN15P9813ControllerILh6ELh7EL6EOrder10ELh4EE13writeBoundaryEv.isra.31>:
template <uint8_t DATA_PIN, uint8_t CLOCK_PIN, EOrder RGB_ORDER = RGB, uint8_t SPI_SPEED = DATA_RATE_MHZ(15)>
class P9813Controller : public CLEDController {
	typedef SPIOutput<DATA_PIN, CLOCK_PIN, SPI_SPEED> SPI;
	SPI mSPI;

	void writeBoundary() { mSPI.writeWord(0); mSPI.writeWord(0); }
    12c8:	b508      	push	{r3, lr}
	static void waitFully() __attribute__((always_inline)) { wait(); }

	static void writeByteNoWait(uint8_t b) __attribute__((always_inline)) { writeByte(b); }
	static void writeBytePostWait(uint8_t b) __attribute__((always_inline)) { writeByte(b); wait(); }

	static void writeWord(uint16_t w) __attribute__((always_inline)) { writeByte(w>>8); writeByte(w&0xFF); }
    12ca:	2000      	movs	r0, #0
    12cc:	f7ff ff9c 	bl	1208 <_ZN20AVRSoftwareSPIOutputILh6ELh7ELh4EE9writeByteEh>
    12d0:	2000      	movs	r0, #0
    12d2:	f7ff ff99 	bl	1208 <_ZN20AVRSoftwareSPIOutputILh6ELh7ELh4EE9writeByteEh>
    12d6:	2000      	movs	r0, #0
    12d8:	f7ff ff96 	bl	1208 <_ZN20AVRSoftwareSPIOutputILh6ELh7ELh4EE9writeByteEh>
    12dc:	2000      	movs	r0, #0
    12de:	f7ff ff93 	bl	1208 <_ZN20AVRSoftwareSPIOutputILh6ELh7ELh4EE9writeByteEh>
    12e2:	bd08      	pop	{r3, pc}

000012e4 <_ZN15PixelControllerIL6EOrder10EE21init_binary_ditheringEv>:
            mData += 1;
            mAdvance = 4;
        }
#endif

        void init_binary_dithering() {
    12e4:	b510      	push	{r4, lr}
                                  (UPDATES_PER_FULL_DITHER_CYCLE>64) + \
                                  (UPDATES_PER_FULL_DITHER_CYCLE>128) )
#define VIRTUAL_BITS RECOMMENDED_VIRTUAL_BITS
            // R is the digther signal 'counter'.
            static byte R = 0;
            R++;
    12e6:	4b16      	ldr	r3, [pc, #88]	; (1340 <_ZN15PixelControllerIL6EOrder10EE21init_binary_ditheringEv+0x5c>)
    12e8:	781a      	ldrb	r2, [r3, #0]
    12ea:	3201      	adds	r2, #1

            // R is wrapped around at 2^ditherBits,
            // so if ditherBits is 2, R will cycle through (0,1,2,3)
            byte ditherBits = VIRTUAL_BITS;
            R &= (0x01 << ditherBits) - 1;
    12ec:	f002 0207 	and.w	r2, r2, #7

            // Q is the "unscaled dither signal" itself.
            // It's initialized to the reversed bits of R.
            // If 'ditherBits' is 2, Q here will cycle through (0,128,64,192)
            byte Q = 0;
    12f0:	f012 0f01 	tst.w	r2, #1
            R++;

            // R is wrapped around at 2^ditherBits,
            // so if ditherBits is 2, R will cycle through (0,1,2,3)
            byte ditherBits = VIRTUAL_BITS;
            R &= (0x01 << ditherBits) - 1;
    12f4:	701a      	strb	r2, [r3, #0]

            // Q is the "unscaled dither signal" itself.
            // It's initialized to the reversed bits of R.
            // If 'ditherBits' is 2, Q here will cycle through (0,128,64,192)
            byte Q = 0;
    12f6:	bf14      	ite	ne
    12f8:	2380      	movne	r3, #128	; 0x80
    12fa:	2300      	moveq	r3, #0

            // Reverse bits in a byte
            {
                if(R & 0x01) { Q |= 0x80; }
                if(R & 0x02) { Q |= 0x40; }
    12fc:	0791      	lsls	r1, r2, #30
    12fe:	bf44      	itt	mi
    1300:	f043 0340 	orrmi.w	r3, r3, #64	; 0x40
    1304:	b2db      	uxtbmi	r3, r3
                if(R & 0x04) { Q |= 0x20; }
    1306:	0752      	lsls	r2, r2, #29
    1308:	bf48      	it	mi
    130a:	f043 0320 	orrmi.w	r3, r3, #32
            // Now we adjust Q to fall in the center of each range,
            // instead of at the start of the range.
            // If ditherBits is 2, Q will be (0, 128, 64, 192) at first,
            // and this adjustment makes it (31, 159, 95, 223).
            if( ditherBits < 8) {
                Q += 0x01 << (7 - ditherBits);
    130e:	3310      	adds	r3, #16
    1310:	b2d9      	uxtb	r1, r3
            // D and E form the "scaled dither signal"
            // which is added to pixel values to affect the
            // actual dithering.

            // Setup the initial D and E values
            for(int i = 0; i < 3; i++) {
    1312:	2200      	movs	r2, #0
                    byte s = mScale.raw[i];
    1314:	7b83      	ldrb	r3, [r0, #14]
                    e[i] = s ? (256/s) + 1 : 0;
    1316:	b12b      	cbz	r3, 1324 <_ZN15PixelControllerIL6EOrder10EE21init_binary_ditheringEv+0x40>
    1318:	f44f 7480 	mov.w	r4, #256	; 0x100
    131c:	fb94 f3f3 	sdiv	r3, r4, r3
    1320:	3301      	adds	r3, #1
    1322:	b2db      	uxtb	r3, r3
//         4 clocks AVR, 2 clocks ARM
LIB8STATIC uint8_t scale8( uint8_t i, fract8 scale)
{
#if SCALE8_C == 1
    return
    ((int)i * (int)(scale) ) >> 8;
    1324:	fb11 f403 	smulbb	r4, r1, r3
    1328:	1224      	asrs	r4, r4, #8
    132a:	72c3      	strb	r3, [r0, #11]
    132c:	7204      	strb	r4, [r0, #8]
                    d[i] = scale8(Q, e[i]);
                    if(e[i]) e[i]--;
    132e:	b10b      	cbz	r3, 1334 <_ZN15PixelControllerIL6EOrder10EE21init_binary_ditheringEv+0x50>
    1330:	3b01      	subs	r3, #1
    1332:	72c3      	strb	r3, [r0, #11]
            // D and E form the "scaled dither signal"
            // which is added to pixel values to affect the
            // actual dithering.

            // Setup the initial D and E values
            for(int i = 0; i < 3; i++) {
    1334:	3201      	adds	r2, #1
    1336:	2a03      	cmp	r2, #3
    1338:	f100 0001 	add.w	r0, r0, #1
    133c:	d1ea      	bne.n	1314 <_ZN15PixelControllerIL6EOrder10EE21init_binary_ditheringEv+0x30>
                    e[i] = s ? (256/s) + 1 : 0;
                    d[i] = scale8(Q, e[i]);
                    if(e[i]) e[i]--;
            }
#endif
        }
    133e:	bd10      	pop	{r4, pc}
    1340:	1fff9056 	.word	0x1fff9056

00001344 <_ZN15PixelControllerIL6EOrder10EEC1ERK4CRGBiRS2_h>:
        PixelController(const CRGB *d, int len, CRGB & s, EDitherMode dither = BINARY_DITHER) : mData((const uint8_t*)d), mLen(len), mScale(s) {
            enable_dithering(dither);
            mAdvance = 3;
        }

        PixelController(const CRGB &d, int len, CRGB & s, EDitherMode dither = BINARY_DITHER) : mData((const uint8_t*)&d), mLen(len), mScale(s) {
    1344:	b510      	push	{r4, lr}
    1346:	e880 0006 	stmia.w	r0, {r1, r2}
    }

    // allow copy construction
	inline CRGB(const CRGB& rhs) __attribute__((always_inline))
    {
        r = rhs.r;
    134a:	781a      	ldrb	r2, [r3, #0]
    134c:	7382      	strb	r2, [r0, #14]
        g = rhs.g;
    134e:	785a      	ldrb	r2, [r3, #1]
        b = rhs.b;
    1350:	789b      	ldrb	r3, [r3, #2]
    1352:	7403      	strb	r3, [r0, #16]
            return mLen >= n;
        }

        // toggle dithering enable
        void enable_dithering(EDitherMode dither) {
            switch(dither) {
    1354:	f89d 3008 	ldrb.w	r3, [sp, #8]

    // allow copy construction
	inline CRGB(const CRGB& rhs) __attribute__((always_inline))
    {
        r = rhs.r;
        g = rhs.g;
    1358:	73c2      	strb	r2, [r0, #15]
    135a:	2b01      	cmp	r3, #1
        PixelController(const CRGB *d, int len, CRGB & s, EDitherMode dither = BINARY_DITHER) : mData((const uint8_t*)d), mLen(len), mScale(s) {
            enable_dithering(dither);
            mAdvance = 3;
        }

        PixelController(const CRGB &d, int len, CRGB & s, EDitherMode dither = BINARY_DITHER) : mData((const uint8_t*)&d), mLen(len), mScale(s) {
    135c:	4604      	mov	r4, r0
            return mLen >= n;
        }

        // toggle dithering enable
        void enable_dithering(EDitherMode dither) {
            switch(dither) {
    135e:	d102      	bne.n	1366 <_ZN15PixelControllerIL6EOrder10EEC1ERK4CRGBiRS2_h+0x22>
                case BINARY_DITHER: init_binary_dithering(); break;
    1360:	f7ff ffc0 	bl	12e4 <_ZN15PixelControllerIL6EOrder10EE21init_binary_ditheringEv>
    1364:	e006      	b.n	1374 <_ZN15PixelControllerIL6EOrder10EEC1ERK4CRGBiRS2_h+0x30>
                default: d[0]=d[1]=d[2]=e[0]=e[1]=e[2]=0; break;
    1366:	2300      	movs	r3, #0
    1368:	7343      	strb	r3, [r0, #13]
    136a:	7303      	strb	r3, [r0, #12]
    136c:	72c3      	strb	r3, [r0, #11]
    136e:	7283      	strb	r3, [r0, #10]
    1370:	7243      	strb	r3, [r0, #9]
    1372:	7203      	strb	r3, [r0, #8]
            mAdvance = 3;
        }

        PixelController(const CRGB &d, int len, CRGB & s, EDitherMode dither = BINARY_DITHER) : mData((const uint8_t*)&d), mLen(len), mScale(s) {
            enable_dithering(dither);
            mAdvance = 0;
    1374:	2300      	movs	r3, #0
    1376:	7463      	strb	r3, [r4, #17]
        }
    1378:	4620      	mov	r0, r4
    137a:	bd10      	pop	{r4, pc}

0000137c <_ZN15P9813ControllerILh10ELh11EL6EOrder10ELh4EE9showColorERK4CRGBiS2_>:

	virtual void clearLeds(int nLeds) {
		showColor(CRGB(0,0,0), nLeds, CRGB(0,0,0));
	}

	virtual void showColor(const struct CRGB & data, int nLeds, CRGB scale) {
    137c:	e92d 43f0 	stmdb	sp!, {r4, r5, r6, r7, r8, r9, lr}
    1380:	b089      	sub	sp, #36	; 0x24
    1382:	4605      	mov	r5, r0
		PixelController<RGB_ORDER> pixels(data, nLeds, scale, getDither());
    1384:	7c80      	ldrb	r0, [r0, #18]
    1386:	9000      	str	r0, [sp, #0]

		mSPI.select();
    1388:	3518      	adds	r5, #24
	virtual void clearLeds(int nLeds) {
		showColor(CRGB(0,0,0), nLeds, CRGB(0,0,0));
	}

	virtual void showColor(const struct CRGB & data, int nLeds, CRGB scale) {
		PixelController<RGB_ORDER> pixels(data, nLeds, scale, getDither());
    138a:	a803      	add	r0, sp, #12

	virtual void clearLeds(int nLeds) {
		showColor(CRGB(0,0,0), nLeds, CRGB(0,0,0));
	}

	virtual void showColor(const struct CRGB & data, int nLeds, CRGB scale) {
    138c:	4614      	mov	r4, r2
		PixelController<RGB_ORDER> pixels(data, nLeds, scale, getDither());
    138e:	f7ff ffd9 	bl	1344 <_ZN15PixelControllerIL6EOrder10EEC1ERK4CRGBiRS2_h>

		mSPI.select();
    1392:	4628      	mov	r0, r5
    1394:	f7ff fdfe 	bl	f94 <_ZN20AVRSoftwareSPIOutputILh10ELh11ELh4EE6selectEv>

		writeBoundary();
    1398:	f7ff fe7a 	bl	1090 <_ZN15P9813ControllerILh10ELh11EL6EOrder10ELh4EE13writeBoundaryEv.isra.26>
		while(nLeds--) {
    139c:	2c00      	cmp	r4, #0
    139e:	d05a      	beq.n	1456 <_ZN15P9813ControllerILh10ELh11EL6EOrder10ELh4EE9showColorERK4CRGBiS2_+0xda>
        template<int SLOT>  __attribute__((always_inline)) inline static uint8_t loadByte(PixelController & pc) { return pc.mData[RO(SLOT)]; }
        template<int SLOT>  __attribute__((always_inline)) inline static uint8_t dither(PixelController & pc, uint8_t b) { return b ? qadd8(b, pc.d[RO(SLOT)]) : 0; }
        template<int SLOT>  __attribute__((always_inline)) inline static uint8_t scale(PixelController & pc, uint8_t b) { return scale8(b, pc.mScale.raw[RO(SLOT)]); }

        // composite shortcut functions for loading, dithering, and scaling
        template<int SLOT>  __attribute__((always_inline)) inline static uint8_t loadAndScale(PixelController & pc) { return scale<SLOT>(pc, pc.dither<SLOT>(pc, pc.loadByte<SLOT>(pc))); }
    13a0:	9b03      	ldr	r3, [sp, #12]
        // Some chipsets pre-cycle the first byte, which means we want to cycle byte 0's dithering separately
        __attribute__((always_inline)) inline void preStepFirstByteDithering() {
            d[RO(0)] = e[RO(0)] - d[RO(0)];
        }

        template<int SLOT>  __attribute__((always_inline)) inline static uint8_t loadByte(PixelController & pc) { return pc.mData[RO(SLOT)]; }
    13a2:	781a      	ldrb	r2, [r3, #0]
        template<int SLOT>  __attribute__((always_inline)) inline static uint8_t dither(PixelController & pc, uint8_t b) { return b ? qadd8(b, pc.d[RO(SLOT)]) : 0; }
    13a4:	b122      	cbz	r2, 13b0 <_ZN15P9813ControllerILh10ELh11EL6EOrder10ELh4EE9showColorERK4CRGBiS2_+0x34>
         "L_%=: "
         : "+a" (i)
         : "a"  (j) );
    return i;
#elif QADD8_ARM_DSP_ASM == 1
    asm volatile( "uqadd8 %0, %0, %1" : "+r" (i) : "r" (j));
    13a6:	f89d 1014 	ldrb.w	r1, [sp, #20]
    13aa:	fa82 f251 	uqadd8	r2, r2, r1
    13ae:	b2d2      	uxtb	r2, r2
        template<int SLOT>  __attribute__((always_inline)) inline static uint8_t scale(PixelController & pc, uint8_t b) { return scale8(b, pc.mScale.raw[RO(SLOT)]); }

        // composite shortcut functions for loading, dithering, and scaling
        template<int SLOT>  __attribute__((always_inline)) inline static uint8_t loadAndScale(PixelController & pc) { return scale<SLOT>(pc, pc.dither<SLOT>(pc, pc.loadByte<SLOT>(pc))); }
    13b0:	f89d 701a 	ldrb.w	r7, [sp, #26]
//         4 clocks AVR, 2 clocks ARM
LIB8STATIC uint8_t scale8( uint8_t i, fract8 scale)
{
#if SCALE8_C == 1
    return
    ((int)i * (int)(scale) ) >> 8;
    13b4:	fb12 f207 	smulbb	r2, r2, r7
    13b8:	1217      	asrs	r7, r2, #8
        // Some chipsets pre-cycle the first byte, which means we want to cycle byte 0's dithering separately
        __attribute__((always_inline)) inline void preStepFirstByteDithering() {
            d[RO(0)] = e[RO(0)] - d[RO(0)];
        }

        template<int SLOT>  __attribute__((always_inline)) inline static uint8_t loadByte(PixelController & pc) { return pc.mData[RO(SLOT)]; }
    13ba:	785a      	ldrb	r2, [r3, #1]
    13bc:	fa5f f887 	uxtb.w	r8, r7
        template<int SLOT>  __attribute__((always_inline)) inline static uint8_t dither(PixelController & pc, uint8_t b) { return b ? qadd8(b, pc.d[RO(SLOT)]) : 0; }
    13c0:	b122      	cbz	r2, 13cc <_ZN15P9813ControllerILh10ELh11EL6EOrder10ELh4EE9showColorERK4CRGBiS2_+0x50>
         "L_%=: "
         : "+a" (i)
         : "a"  (j) );
    return i;
#elif QADD8_ARM_DSP_ASM == 1
    asm volatile( "uqadd8 %0, %0, %1" : "+r" (i) : "r" (j));
    13c2:	f89d 1015 	ldrb.w	r1, [sp, #21]
    13c6:	fa82 f251 	uqadd8	r2, r2, r1
    13ca:	b2d2      	uxtb	r2, r2
        template<int SLOT>  __attribute__((always_inline)) inline static uint8_t scale(PixelController & pc, uint8_t b) { return scale8(b, pc.mScale.raw[RO(SLOT)]); }

        // composite shortcut functions for loading, dithering, and scaling
        template<int SLOT>  __attribute__((always_inline)) inline static uint8_t loadAndScale(PixelController & pc) { return scale<SLOT>(pc, pc.dither<SLOT>(pc, pc.loadByte<SLOT>(pc))); }
    13cc:	f89d 101b 	ldrb.w	r1, [sp, #27]
        // Some chipsets pre-cycle the first byte, which means we want to cycle byte 0's dithering separately
        __attribute__((always_inline)) inline void preStepFirstByteDithering() {
            d[RO(0)] = e[RO(0)] - d[RO(0)];
        }

        template<int SLOT>  __attribute__((always_inline)) inline static uint8_t loadByte(PixelController & pc) { return pc.mData[RO(SLOT)]; }
    13d0:	789b      	ldrb	r3, [r3, #2]
//         4 clocks AVR, 2 clocks ARM
LIB8STATIC uint8_t scale8( uint8_t i, fract8 scale)
{
#if SCALE8_C == 1
    return
    ((int)i * (int)(scale) ) >> 8;
    13d2:	fb12 f201 	smulbb	r2, r2, r1
    13d6:	1211      	asrs	r1, r2, #8
    13d8:	fa5f f981 	uxtb.w	r9, r1
        template<int SLOT>  __attribute__((always_inline)) inline static uint8_t dither(PixelController & pc, uint8_t b) { return b ? qadd8(b, pc.d[RO(SLOT)]) : 0; }
    13dc:	b123      	cbz	r3, 13e8 <_ZN15P9813ControllerILh10ELh11EL6EOrder10ELh4EE9showColorERK4CRGBiS2_+0x6c>
         "L_%=: "
         : "+a" (i)
         : "a"  (j) );
    return i;
#elif QADD8_ARM_DSP_ASM == 1
    asm volatile( "uqadd8 %0, %0, %1" : "+r" (i) : "r" (j));
    13de:	f89d 2016 	ldrb.w	r2, [sp, #22]
    13e2:	fa83 f352 	uqadd8	r3, r3, r2
    13e6:	b2db      	uxtb	r3, r3
        template<int SLOT>  __attribute__((always_inline)) inline static uint8_t scale(PixelController & pc, uint8_t b) { return scale8(b, pc.mScale.raw[RO(SLOT)]); }

        // composite shortcut functions for loading, dithering, and scaling
        template<int SLOT>  __attribute__((always_inline)) inline static uint8_t loadAndScale(PixelController & pc) { return scale<SLOT>(pc, pc.dither<SLOT>(pc, pc.loadByte<SLOT>(pc))); }
    13e8:	f89d 601c 	ldrb.w	r6, [sp, #28]
	SPI mSPI;

	void writeBoundary() { mSPI.writeWord(0); mSPI.writeWord(0); }

	inline void writeLed(uint8_t r, uint8_t g, uint8_t b) __attribute__((always_inline)) {
		register uint8_t top = 0xC0 | ((~b & 0xC0) >> 2) | ((~g & 0xC0) >> 4) | ((~r & 0xC0) >> 6);
    13ec:	43ff      	mvns	r7, r7
//         4 clocks AVR, 2 clocks ARM
LIB8STATIC uint8_t scale8( uint8_t i, fract8 scale)
{
#if SCALE8_C == 1
    return
    ((int)i * (int)(scale) ) >> 8;
    13ee:	fb13 f306 	smulbb	r3, r3, r6
    13f2:	121e      	asrs	r6, r3, #8
    13f4:	f3c7 1781 	ubfx	r7, r7, #6, #2
    13f8:	43c9      	mvns	r1, r1
    13fa:	f067 073f 	orn	r7, r7, #63	; 0x3f
    13fe:	f001 01c0 	and.w	r1, r1, #192	; 0xc0
    1402:	43f0      	mvns	r0, r6
    1404:	ea47 1111 	orr.w	r1, r7, r1, lsr #4
    1408:	f000 00c0 	and.w	r0, r0, #192	; 0xc0
    140c:	ea41 0090 	orr.w	r0, r1, r0, lsr #2
		mSPI.writeByte(top); mSPI.writeByte(b); mSPI.writeByte(g); mSPI.writeByte(r);
    1410:	b2c0      	uxtb	r0, r0
    1412:	f7ff fddd 	bl	fd0 <_ZN20AVRSoftwareSPIOutputILh10ELh11ELh4EE9writeByteEh>
    1416:	4630      	mov	r0, r6
    1418:	f7ff fdda 	bl	fd0 <_ZN20AVRSoftwareSPIOutputILh10ELh11ELh4EE9writeByteEh>
    141c:	4648      	mov	r0, r9
    141e:	f7ff fdd7 	bl	fd0 <_ZN20AVRSoftwareSPIOutputILh10ELh11ELh4EE9writeByteEh>
    1422:	4640      	mov	r0, r8
    1424:	f7ff fdd4 	bl	fd0 <_ZN20AVRSoftwareSPIOutputILh10ELh11ELh4EE9writeByteEh>

        // step the dithering forward
         __attribute__((always_inline)) inline void stepDithering() {
         		// IF UPDATING HERE, BE SURE TO UPDATE THE ASM VERSION IN
         		// clockless_trinket.h!
                d[0] = e[0] - d[0];
    1428:	f89d 2017 	ldrb.w	r2, [sp, #23]
    142c:	f89d 3014 	ldrb.w	r3, [sp, #20]
    1430:	1ad3      	subs	r3, r2, r3
    1432:	f88d 3014 	strb.w	r3, [sp, #20]
                d[1] = e[1] - d[1];
    1436:	f89d 2018 	ldrb.w	r2, [sp, #24]
    143a:	f89d 3015 	ldrb.w	r3, [sp, #21]
    143e:	1ad3      	subs	r3, r2, r3
    1440:	f88d 3015 	strb.w	r3, [sp, #21]
                d[2] = e[2] - d[2];
    1444:	f89d 2019 	ldrb.w	r2, [sp, #25]
    1448:	f89d 3016 	ldrb.w	r3, [sp, #22]
    144c:	1ad3      	subs	r3, r2, r3
    144e:	f88d 3016 	strb.w	r3, [sp, #22]
    1452:	3c01      	subs	r4, #1
    1454:	e7a2      	b.n	139c <_ZN15P9813ControllerILh10ELh11EL6EOrder10ELh4EE9showColorERK4CRGBiS2_+0x20>
		writeBoundary();
		while(nLeds--) {
			writeLed(pixels.loadAndScale0(), pixels.loadAndScale1(), pixels.loadAndScale2());
			pixels.stepDithering();
		}
		writeBoundary();
    1456:	f7ff fe1b 	bl	1090 <_ZN15P9813ControllerILh10ELh11EL6EOrder10ELh4EE13writeBoundaryEv.isra.26>

		mSPI.waitFully();
		mSPI.release();
    145a:	4628      	mov	r0, r5
    145c:	f7ff fda1 	bl	fa2 <_ZN20AVRSoftwareSPIOutputILh10ELh11ELh4EE7releaseEv>
	}
    1460:	b009      	add	sp, #36	; 0x24
    1462:	e8bd 83f0 	ldmia.w	sp!, {r4, r5, r6, r7, r8, r9, pc}

00001466 <_ZN15P9813ControllerILh8ELh9EL6EOrder10ELh4EE9showColorERK4CRGBiS2_>:

	virtual void clearLeds(int nLeds) {
		showColor(CRGB(0,0,0), nLeds, CRGB(0,0,0));
	}

	virtual void showColor(const struct CRGB & data, int nLeds, CRGB scale) {
    1466:	e92d 43f0 	stmdb	sp!, {r4, r5, r6, r7, r8, r9, lr}
    146a:	b089      	sub	sp, #36	; 0x24
    146c:	4605      	mov	r5, r0
		PixelController<RGB_ORDER> pixels(data, nLeds, scale, getDither());
    146e:	7c80      	ldrb	r0, [r0, #18]
    1470:	9000      	str	r0, [sp, #0]

		mSPI.select();
    1472:	3518      	adds	r5, #24
	virtual void clearLeds(int nLeds) {
		showColor(CRGB(0,0,0), nLeds, CRGB(0,0,0));
	}

	virtual void showColor(const struct CRGB & data, int nLeds, CRGB scale) {
		PixelController<RGB_ORDER> pixels(data, nLeds, scale, getDither());
    1474:	a803      	add	r0, sp, #12

	virtual void clearLeds(int nLeds) {
		showColor(CRGB(0,0,0), nLeds, CRGB(0,0,0));
	}

	virtual void showColor(const struct CRGB & data, int nLeds, CRGB scale) {
    1476:	4614      	mov	r4, r2
		PixelController<RGB_ORDER> pixels(data, nLeds, scale, getDither());
    1478:	f7ff ff64 	bl	1344 <_ZN15PixelControllerIL6EOrder10EEC1ERK4CRGBiRS2_h>

		mSPI.select();
    147c:	4628      	mov	r0, r5
    147e:	f7ff fe15 	bl	10ac <_ZN20AVRSoftwareSPIOutputILh8ELh9ELh4EE6selectEv>

		writeBoundary();
    1482:	f7ff fe95 	bl	11b0 <_ZN15P9813ControllerILh8ELh9EL6EOrder10ELh4EE13writeBoundaryEv.isra.29>
		while(nLeds--) {
    1486:	2c00      	cmp	r4, #0
    1488:	d05a      	beq.n	1540 <_ZN15P9813ControllerILh8ELh9EL6EOrder10ELh4EE9showColorERK4CRGBiS2_+0xda>
        template<int SLOT>  __attribute__((always_inline)) inline static uint8_t loadByte(PixelController & pc) { return pc.mData[RO(SLOT)]; }
        template<int SLOT>  __attribute__((always_inline)) inline static uint8_t dither(PixelController & pc, uint8_t b) { return b ? qadd8(b, pc.d[RO(SLOT)]) : 0; }
        template<int SLOT>  __attribute__((always_inline)) inline static uint8_t scale(PixelController & pc, uint8_t b) { return scale8(b, pc.mScale.raw[RO(SLOT)]); }

        // composite shortcut functions for loading, dithering, and scaling
        template<int SLOT>  __attribute__((always_inline)) inline static uint8_t loadAndScale(PixelController & pc) { return scale<SLOT>(pc, pc.dither<SLOT>(pc, pc.loadByte<SLOT>(pc))); }
    148a:	9b03      	ldr	r3, [sp, #12]
        // Some chipsets pre-cycle the first byte, which means we want to cycle byte 0's dithering separately
        __attribute__((always_inline)) inline void preStepFirstByteDithering() {
            d[RO(0)] = e[RO(0)] - d[RO(0)];
        }

        template<int SLOT>  __attribute__((always_inline)) inline static uint8_t loadByte(PixelController & pc) { return pc.mData[RO(SLOT)]; }
    148c:	781a      	ldrb	r2, [r3, #0]
        template<int SLOT>  __attribute__((always_inline)) inline static uint8_t dither(PixelController & pc, uint8_t b) { return b ? qadd8(b, pc.d[RO(SLOT)]) : 0; }
    148e:	b122      	cbz	r2, 149a <_ZN15P9813ControllerILh8ELh9EL6EOrder10ELh4EE9showColorERK4CRGBiS2_+0x34>
         "L_%=: "
         : "+a" (i)
         : "a"  (j) );
    return i;
#elif QADD8_ARM_DSP_ASM == 1
    asm volatile( "uqadd8 %0, %0, %1" : "+r" (i) : "r" (j));
    1490:	f89d 1014 	ldrb.w	r1, [sp, #20]
    1494:	fa82 f251 	uqadd8	r2, r2, r1
    1498:	b2d2      	uxtb	r2, r2
        template<int SLOT>  __attribute__((always_inline)) inline static uint8_t scale(PixelController & pc, uint8_t b) { return scale8(b, pc.mScale.raw[RO(SLOT)]); }

        // composite shortcut functions for loading, dithering, and scaling
        template<int SLOT>  __attribute__((always_inline)) inline static uint8_t loadAndScale(PixelController & pc) { return scale<SLOT>(pc, pc.dither<SLOT>(pc, pc.loadByte<SLOT>(pc))); }
    149a:	f89d 701a 	ldrb.w	r7, [sp, #26]
//         4 clocks AVR, 2 clocks ARM
LIB8STATIC uint8_t scale8( uint8_t i, fract8 scale)
{
#if SCALE8_C == 1
    return
    ((int)i * (int)(scale) ) >> 8;
    149e:	fb12 f207 	smulbb	r2, r2, r7
    14a2:	1217      	asrs	r7, r2, #8
        // Some chipsets pre-cycle the first byte, which means we want to cycle byte 0's dithering separately
        __attribute__((always_inline)) inline void preStepFirstByteDithering() {
            d[RO(0)] = e[RO(0)] - d[RO(0)];
        }

        template<int SLOT>  __attribute__((always_inline)) inline static uint8_t loadByte(PixelController & pc) { return pc.mData[RO(SLOT)]; }
    14a4:	785a      	ldrb	r2, [r3, #1]
    14a6:	fa5f f887 	uxtb.w	r8, r7
        template<int SLOT>  __attribute__((always_inline)) inline static uint8_t dither(PixelController & pc, uint8_t b) { return b ? qadd8(b, pc.d[RO(SLOT)]) : 0; }
    14aa:	b122      	cbz	r2, 14b6 <_ZN15P9813ControllerILh8ELh9EL6EOrder10ELh4EE9showColorERK4CRGBiS2_+0x50>
         "L_%=: "
         : "+a" (i)
         : "a"  (j) );
    return i;
#elif QADD8_ARM_DSP_ASM == 1
    asm volatile( "uqadd8 %0, %0, %1" : "+r" (i) : "r" (j));
    14ac:	f89d 1015 	ldrb.w	r1, [sp, #21]
    14b0:	fa82 f251 	uqadd8	r2, r2, r1
    14b4:	b2d2      	uxtb	r2, r2
        template<int SLOT>  __attribute__((always_inline)) inline static uint8_t scale(PixelController & pc, uint8_t b) { return scale8(b, pc.mScale.raw[RO(SLOT)]); }

        // composite shortcut functions for loading, dithering, and scaling
        template<int SLOT>  __attribute__((always_inline)) inline static uint8_t loadAndScale(PixelController & pc) { return scale<SLOT>(pc, pc.dither<SLOT>(pc, pc.loadByte<SLOT>(pc))); }
    14b6:	f89d 101b 	ldrb.w	r1, [sp, #27]
        // Some chipsets pre-cycle the first byte, which means we want to cycle byte 0's dithering separately
        __attribute__((always_inline)) inline void preStepFirstByteDithering() {
            d[RO(0)] = e[RO(0)] - d[RO(0)];
        }

        template<int SLOT>  __attribute__((always_inline)) inline static uint8_t loadByte(PixelController & pc) { return pc.mData[RO(SLOT)]; }
    14ba:	789b      	ldrb	r3, [r3, #2]
//         4 clocks AVR, 2 clocks ARM
LIB8STATIC uint8_t scale8( uint8_t i, fract8 scale)
{
#if SCALE8_C == 1
    return
    ((int)i * (int)(scale) ) >> 8;
    14bc:	fb12 f201 	smulbb	r2, r2, r1
    14c0:	1211      	asrs	r1, r2, #8
    14c2:	fa5f f981 	uxtb.w	r9, r1
        template<int SLOT>  __attribute__((always_inline)) inline static uint8_t dither(PixelController & pc, uint8_t b) { return b ? qadd8(b, pc.d[RO(SLOT)]) : 0; }
    14c6:	b123      	cbz	r3, 14d2 <_ZN15P9813ControllerILh8ELh9EL6EOrder10ELh4EE9showColorERK4CRGBiS2_+0x6c>
         "L_%=: "
         : "+a" (i)
         : "a"  (j) );
    return i;
#elif QADD8_ARM_DSP_ASM == 1
    asm volatile( "uqadd8 %0, %0, %1" : "+r" (i) : "r" (j));
    14c8:	f89d 2016 	ldrb.w	r2, [sp, #22]
    14cc:	fa83 f352 	uqadd8	r3, r3, r2
    14d0:	b2db      	uxtb	r3, r3
        template<int SLOT>  __attribute__((always_inline)) inline static uint8_t scale(PixelController & pc, uint8_t b) { return scale8(b, pc.mScale.raw[RO(SLOT)]); }

        // composite shortcut functions for loading, dithering, and scaling
        template<int SLOT>  __attribute__((always_inline)) inline static uint8_t loadAndScale(PixelController & pc) { return scale<SLOT>(pc, pc.dither<SLOT>(pc, pc.loadByte<SLOT>(pc))); }
    14d2:	f89d 601c 	ldrb.w	r6, [sp, #28]
	SPI mSPI;

	void writeBoundary() { mSPI.writeWord(0); mSPI.writeWord(0); }

	inline void writeLed(uint8_t r, uint8_t g, uint8_t b) __attribute__((always_inline)) {
		register uint8_t top = 0xC0 | ((~b & 0xC0) >> 2) | ((~g & 0xC0) >> 4) | ((~r & 0xC0) >> 6);
    14d6:	43ff      	mvns	r7, r7
//         4 clocks AVR, 2 clocks ARM
LIB8STATIC uint8_t scale8( uint8_t i, fract8 scale)
{
#if SCALE8_C == 1
    return
    ((int)i * (int)(scale) ) >> 8;
    14d8:	fb13 f306 	smulbb	r3, r3, r6
    14dc:	121e      	asrs	r6, r3, #8
    14de:	f3c7 1781 	ubfx	r7, r7, #6, #2
    14e2:	43c9      	mvns	r1, r1
    14e4:	f067 073f 	orn	r7, r7, #63	; 0x3f
    14e8:	f001 01c0 	and.w	r1, r1, #192	; 0xc0
    14ec:	43f0      	mvns	r0, r6
    14ee:	ea47 1111 	orr.w	r1, r7, r1, lsr #4
    14f2:	f000 00c0 	and.w	r0, r0, #192	; 0xc0
    14f6:	ea41 0090 	orr.w	r0, r1, r0, lsr #2
		mSPI.writeByte(top); mSPI.writeByte(b); mSPI.writeByte(g); mSPI.writeByte(r);
    14fa:	b2c0      	uxtb	r0, r0
    14fc:	f7ff fdf4 	bl	10e8 <_ZN20AVRSoftwareSPIOutputILh8ELh9ELh4EE9writeByteEh>
    1500:	4630      	mov	r0, r6
    1502:	f7ff fdf1 	bl	10e8 <_ZN20AVRSoftwareSPIOutputILh8ELh9ELh4EE9writeByteEh>
    1506:	4648      	mov	r0, r9
    1508:	f7ff fdee 	bl	10e8 <_ZN20AVRSoftwareSPIOutputILh8ELh9ELh4EE9writeByteEh>
    150c:	4640      	mov	r0, r8
    150e:	f7ff fdeb 	bl	10e8 <_ZN20AVRSoftwareSPIOutputILh8ELh9ELh4EE9writeByteEh>

        // step the dithering forward
         __attribute__((always_inline)) inline void stepDithering() {
         		// IF UPDATING HERE, BE SURE TO UPDATE THE ASM VERSION IN
         		// clockless_trinket.h!
                d[0] = e[0] - d[0];
    1512:	f89d 2017 	ldrb.w	r2, [sp, #23]
    1516:	f89d 3014 	ldrb.w	r3, [sp, #20]
    151a:	1ad3      	subs	r3, r2, r3
    151c:	f88d 3014 	strb.w	r3, [sp, #20]
                d[1] = e[1] - d[1];
    1520:	f89d 2018 	ldrb.w	r2, [sp, #24]
    1524:	f89d 3015 	ldrb.w	r3, [sp, #21]
    1528:	1ad3      	subs	r3, r2, r3
    152a:	f88d 3015 	strb.w	r3, [sp, #21]
                d[2] = e[2] - d[2];
    152e:	f89d 2019 	ldrb.w	r2, [sp, #25]
    1532:	f89d 3016 	ldrb.w	r3, [sp, #22]
    1536:	1ad3      	subs	r3, r2, r3
    1538:	f88d 3016 	strb.w	r3, [sp, #22]
    153c:	3c01      	subs	r4, #1
    153e:	e7a2      	b.n	1486 <_ZN15P9813ControllerILh8ELh9EL6EOrder10ELh4EE9showColorERK4CRGBiS2_+0x20>
		writeBoundary();
		while(nLeds--) {
			writeLed(pixels.loadAndScale0(), pixels.loadAndScale1(), pixels.loadAndScale2());
			pixels.stepDithering();
		}
		writeBoundary();
    1540:	f7ff fe36 	bl	11b0 <_ZN15P9813ControllerILh8ELh9EL6EOrder10ELh4EE13writeBoundaryEv.isra.29>

		mSPI.waitFully();
		mSPI.release();
    1544:	4628      	mov	r0, r5
    1546:	f7ff fdb8 	bl	10ba <_ZN20AVRSoftwareSPIOutputILh8ELh9ELh4EE7releaseEv>
	}
    154a:	b009      	add	sp, #36	; 0x24
    154c:	e8bd 83f0 	ldmia.w	sp!, {r4, r5, r6, r7, r8, r9, pc}

00001550 <_ZN15P9813ControllerILh6ELh7EL6EOrder10ELh4EE9showColorERK4CRGBiS2_>:

	virtual void clearLeds(int nLeds) {
		showColor(CRGB(0,0,0), nLeds, CRGB(0,0,0));
	}

	virtual void showColor(const struct CRGB & data, int nLeds, CRGB scale) {
    1550:	e92d 43f0 	stmdb	sp!, {r4, r5, r6, r7, r8, r9, lr}
    1554:	b089      	sub	sp, #36	; 0x24
    1556:	4605      	mov	r5, r0
		PixelController<RGB_ORDER> pixels(data, nLeds, scale, getDither());
    1558:	7c80      	ldrb	r0, [r0, #18]
    155a:	9000      	str	r0, [sp, #0]

		mSPI.select();
    155c:	3518      	adds	r5, #24
	virtual void clearLeds(int nLeds) {
		showColor(CRGB(0,0,0), nLeds, CRGB(0,0,0));
	}

	virtual void showColor(const struct CRGB & data, int nLeds, CRGB scale) {
		PixelController<RGB_ORDER> pixels(data, nLeds, scale, getDither());
    155e:	a803      	add	r0, sp, #12

	virtual void clearLeds(int nLeds) {
		showColor(CRGB(0,0,0), nLeds, CRGB(0,0,0));
	}

	virtual void showColor(const struct CRGB & data, int nLeds, CRGB scale) {
    1560:	4614      	mov	r4, r2
		PixelController<RGB_ORDER> pixels(data, nLeds, scale, getDither());
    1562:	f7ff feef 	bl	1344 <_ZN15PixelControllerIL6EOrder10EEC1ERK4CRGBiRS2_h>

		mSPI.select();
    1566:	4628      	mov	r0, r5
    1568:	f7ff fe30 	bl	11cc <_ZN20AVRSoftwareSPIOutputILh6ELh7ELh4EE6selectEv>

		writeBoundary();
    156c:	f7ff feac 	bl	12c8 <_ZN15P9813ControllerILh6ELh7EL6EOrder10ELh4EE13writeBoundaryEv.isra.31>
		while(nLeds--) {
    1570:	2c00      	cmp	r4, #0
    1572:	d05a      	beq.n	162a <_ZN15P9813ControllerILh6ELh7EL6EOrder10ELh4EE9showColorERK4CRGBiS2_+0xda>
        template<int SLOT>  __attribute__((always_inline)) inline static uint8_t loadByte(PixelController & pc) { return pc.mData[RO(SLOT)]; }
        template<int SLOT>  __attribute__((always_inline)) inline static uint8_t dither(PixelController & pc, uint8_t b) { return b ? qadd8(b, pc.d[RO(SLOT)]) : 0; }
        template<int SLOT>  __attribute__((always_inline)) inline static uint8_t scale(PixelController & pc, uint8_t b) { return scale8(b, pc.mScale.raw[RO(SLOT)]); }

        // composite shortcut functions for loading, dithering, and scaling
        template<int SLOT>  __attribute__((always_inline)) inline static uint8_t loadAndScale(PixelController & pc) { return scale<SLOT>(pc, pc.dither<SLOT>(pc, pc.loadByte<SLOT>(pc))); }
    1574:	9b03      	ldr	r3, [sp, #12]
        // Some chipsets pre-cycle the first byte, which means we want to cycle byte 0's dithering separately
        __attribute__((always_inline)) inline void preStepFirstByteDithering() {
            d[RO(0)] = e[RO(0)] - d[RO(0)];
        }

        template<int SLOT>  __attribute__((always_inline)) inline static uint8_t loadByte(PixelController & pc) { return pc.mData[RO(SLOT)]; }
    1576:	781a      	ldrb	r2, [r3, #0]
        template<int SLOT>  __attribute__((always_inline)) inline static uint8_t dither(PixelController & pc, uint8_t b) { return b ? qadd8(b, pc.d[RO(SLOT)]) : 0; }
    1578:	b122      	cbz	r2, 1584 <_ZN15P9813ControllerILh6ELh7EL6EOrder10ELh4EE9showColorERK4CRGBiS2_+0x34>
         "L_%=: "
         : "+a" (i)
         : "a"  (j) );
    return i;
#elif QADD8_ARM_DSP_ASM == 1
    asm volatile( "uqadd8 %0, %0, %1" : "+r" (i) : "r" (j));
    157a:	f89d 1014 	ldrb.w	r1, [sp, #20]
    157e:	fa82 f251 	uqadd8	r2, r2, r1
    1582:	b2d2      	uxtb	r2, r2
        template<int SLOT>  __attribute__((always_inline)) inline static uint8_t scale(PixelController & pc, uint8_t b) { return scale8(b, pc.mScale.raw[RO(SLOT)]); }

        // composite shortcut functions for loading, dithering, and scaling
        template<int SLOT>  __attribute__((always_inline)) inline static uint8_t loadAndScale(PixelController & pc) { return scale<SLOT>(pc, pc.dither<SLOT>(pc, pc.loadByte<SLOT>(pc))); }
    1584:	f89d 701a 	ldrb.w	r7, [sp, #26]
//         4 clocks AVR, 2 clocks ARM
LIB8STATIC uint8_t scale8( uint8_t i, fract8 scale)
{
#if SCALE8_C == 1
    return
    ((int)i * (int)(scale) ) >> 8;
    1588:	fb12 f207 	smulbb	r2, r2, r7
    158c:	1217      	asrs	r7, r2, #8
        // Some chipsets pre-cycle the first byte, which means we want to cycle byte 0's dithering separately
        __attribute__((always_inline)) inline void preStepFirstByteDithering() {
            d[RO(0)] = e[RO(0)] - d[RO(0)];
        }

        template<int SLOT>  __attribute__((always_inline)) inline static uint8_t loadByte(PixelController & pc) { return pc.mData[RO(SLOT)]; }
    158e:	785a      	ldrb	r2, [r3, #1]
    1590:	fa5f f887 	uxtb.w	r8, r7
        template<int SLOT>  __attribute__((always_inline)) inline static uint8_t dither(PixelController & pc, uint8_t b) { return b ? qadd8(b, pc.d[RO(SLOT)]) : 0; }
    1594:	b122      	cbz	r2, 15a0 <_ZN15P9813ControllerILh6ELh7EL6EOrder10ELh4EE9showColorERK4CRGBiS2_+0x50>
         "L_%=: "
         : "+a" (i)
         : "a"  (j) );
    return i;
#elif QADD8_ARM_DSP_ASM == 1
    asm volatile( "uqadd8 %0, %0, %1" : "+r" (i) : "r" (j));
    1596:	f89d 1015 	ldrb.w	r1, [sp, #21]
    159a:	fa82 f251 	uqadd8	r2, r2, r1
    159e:	b2d2      	uxtb	r2, r2
        template<int SLOT>  __attribute__((always_inline)) inline static uint8_t scale(PixelController & pc, uint8_t b) { return scale8(b, pc.mScale.raw[RO(SLOT)]); }

        // composite shortcut functions for loading, dithering, and scaling
        template<int SLOT>  __attribute__((always_inline)) inline static uint8_t loadAndScale(PixelController & pc) { return scale<SLOT>(pc, pc.dither<SLOT>(pc, pc.loadByte<SLOT>(pc))); }
    15a0:	f89d 101b 	ldrb.w	r1, [sp, #27]
        // Some chipsets pre-cycle the first byte, which means we want to cycle byte 0's dithering separately
        __attribute__((always_inline)) inline void preStepFirstByteDithering() {
            d[RO(0)] = e[RO(0)] - d[RO(0)];
        }

        template<int SLOT>  __attribute__((always_inline)) inline static uint8_t loadByte(PixelController & pc) { return pc.mData[RO(SLOT)]; }
    15a4:	789b      	ldrb	r3, [r3, #2]
//         4 clocks AVR, 2 clocks ARM
LIB8STATIC uint8_t scale8( uint8_t i, fract8 scale)
{
#if SCALE8_C == 1
    return
    ((int)i * (int)(scale) ) >> 8;
    15a6:	fb12 f201 	smulbb	r2, r2, r1
    15aa:	1211      	asrs	r1, r2, #8
    15ac:	fa5f f981 	uxtb.w	r9, r1
        template<int SLOT>  __attribute__((always_inline)) inline static uint8_t dither(PixelController & pc, uint8_t b) { return b ? qadd8(b, pc.d[RO(SLOT)]) : 0; }
    15b0:	b123      	cbz	r3, 15bc <_ZN15P9813ControllerILh6ELh7EL6EOrder10ELh4EE9showColorERK4CRGBiS2_+0x6c>
         "L_%=: "
         : "+a" (i)
         : "a"  (j) );
    return i;
#elif QADD8_ARM_DSP_ASM == 1
    asm volatile( "uqadd8 %0, %0, %1" : "+r" (i) : "r" (j));
    15b2:	f89d 2016 	ldrb.w	r2, [sp, #22]
    15b6:	fa83 f352 	uqadd8	r3, r3, r2
    15ba:	b2db      	uxtb	r3, r3
        template<int SLOT>  __attribute__((always_inline)) inline static uint8_t scale(PixelController & pc, uint8_t b) { return scale8(b, pc.mScale.raw[RO(SLOT)]); }

        // composite shortcut functions for loading, dithering, and scaling
        template<int SLOT>  __attribute__((always_inline)) inline static uint8_t loadAndScale(PixelController & pc) { return scale<SLOT>(pc, pc.dither<SLOT>(pc, pc.loadByte<SLOT>(pc))); }
    15bc:	f89d 601c 	ldrb.w	r6, [sp, #28]
	SPI mSPI;

	void writeBoundary() { mSPI.writeWord(0); mSPI.writeWord(0); }

	inline void writeLed(uint8_t r, uint8_t g, uint8_t b) __attribute__((always_inline)) {
		register uint8_t top = 0xC0 | ((~b & 0xC0) >> 2) | ((~g & 0xC0) >> 4) | ((~r & 0xC0) >> 6);
    15c0:	43ff      	mvns	r7, r7
//         4 clocks AVR, 2 clocks ARM
LIB8STATIC uint8_t scale8( uint8_t i, fract8 scale)
{
#if SCALE8_C == 1
    return
    ((int)i * (int)(scale) ) >> 8;
    15c2:	fb13 f306 	smulbb	r3, r3, r6
    15c6:	121e      	asrs	r6, r3, #8
    15c8:	f3c7 1781 	ubfx	r7, r7, #6, #2
    15cc:	43c9      	mvns	r1, r1
    15ce:	f067 073f 	orn	r7, r7, #63	; 0x3f
    15d2:	f001 01c0 	and.w	r1, r1, #192	; 0xc0
    15d6:	43f0      	mvns	r0, r6
    15d8:	ea47 1111 	orr.w	r1, r7, r1, lsr #4
    15dc:	f000 00c0 	and.w	r0, r0, #192	; 0xc0
    15e0:	ea41 0090 	orr.w	r0, r1, r0, lsr #2
		mSPI.writeByte(top); mSPI.writeByte(b); mSPI.writeByte(g); mSPI.writeByte(r);
    15e4:	b2c0      	uxtb	r0, r0
    15e6:	f7ff fe0f 	bl	1208 <_ZN20AVRSoftwareSPIOutputILh6ELh7ELh4EE9writeByteEh>
    15ea:	4630      	mov	r0, r6
    15ec:	f7ff fe0c 	bl	1208 <_ZN20AVRSoftwareSPIOutputILh6ELh7ELh4EE9writeByteEh>
    15f0:	4648      	mov	r0, r9
    15f2:	f7ff fe09 	bl	1208 <_ZN20AVRSoftwareSPIOutputILh6ELh7ELh4EE9writeByteEh>
    15f6:	4640      	mov	r0, r8
    15f8:	f7ff fe06 	bl	1208 <_ZN20AVRSoftwareSPIOutputILh6ELh7ELh4EE9writeByteEh>

        // step the dithering forward
         __attribute__((always_inline)) inline void stepDithering() {
         		// IF UPDATING HERE, BE SURE TO UPDATE THE ASM VERSION IN
         		// clockless_trinket.h!
                d[0] = e[0] - d[0];
    15fc:	f89d 2017 	ldrb.w	r2, [sp, #23]
    1600:	f89d 3014 	ldrb.w	r3, [sp, #20]
    1604:	1ad3      	subs	r3, r2, r3
    1606:	f88d 3014 	strb.w	r3, [sp, #20]
                d[1] = e[1] - d[1];
    160a:	f89d 2018 	ldrb.w	r2, [sp, #24]
    160e:	f89d 3015 	ldrb.w	r3, [sp, #21]
    1612:	1ad3      	subs	r3, r2, r3
    1614:	f88d 3015 	strb.w	r3, [sp, #21]
                d[2] = e[2] - d[2];
    1618:	f89d 2019 	ldrb.w	r2, [sp, #25]
    161c:	f89d 3016 	ldrb.w	r3, [sp, #22]
    1620:	1ad3      	subs	r3, r2, r3
    1622:	f88d 3016 	strb.w	r3, [sp, #22]
    1626:	3c01      	subs	r4, #1
    1628:	e7a2      	b.n	1570 <_ZN15P9813ControllerILh6ELh7EL6EOrder10ELh4EE9showColorERK4CRGBiS2_+0x20>
		writeBoundary();
		while(nLeds--) {
			writeLed(pixels.loadAndScale0(), pixels.loadAndScale1(), pixels.loadAndScale2());
			pixels.stepDithering();
		}
		writeBoundary();
    162a:	f7ff fe4d 	bl	12c8 <_ZN15P9813ControllerILh6ELh7EL6EOrder10ELh4EE13writeBoundaryEv.isra.31>

		mSPI.waitFully();
		mSPI.release();
    162e:	4628      	mov	r0, r5
    1630:	f7ff fdd3 	bl	11da <_ZN20AVRSoftwareSPIOutputILh6ELh7ELh4EE7releaseEv>
	}
    1634:	b009      	add	sp, #36	; 0x24
    1636:	e8bd 83f0 	ldmia.w	sp!, {r4, r5, r6, r7, r8, r9, pc}

0000163a <_ZN15PixelControllerIL6EOrder10EEC1EPK4CRGBiRS2_h>:
            enable_dithering(dither);
            mData += skip;
            mAdvance = (advance) ? 3+skip : 0;
        }

        PixelController(const CRGB *d, int len, CRGB & s, EDitherMode dither = BINARY_DITHER) : mData((const uint8_t*)d), mLen(len), mScale(s) {
    163a:	b510      	push	{r4, lr}
    163c:	e880 0006 	stmia.w	r0, {r1, r2}
    }

    // allow copy construction
	inline CRGB(const CRGB& rhs) __attribute__((always_inline))
    {
        r = rhs.r;
    1640:	781a      	ldrb	r2, [r3, #0]
    1642:	7382      	strb	r2, [r0, #14]
        g = rhs.g;
    1644:	785a      	ldrb	r2, [r3, #1]
        b = rhs.b;
    1646:	789b      	ldrb	r3, [r3, #2]
    1648:	7403      	strb	r3, [r0, #16]
            return mLen >= n;
        }

        // toggle dithering enable
        void enable_dithering(EDitherMode dither) {
            switch(dither) {
    164a:	f89d 3008 	ldrb.w	r3, [sp, #8]

    // allow copy construction
	inline CRGB(const CRGB& rhs) __attribute__((always_inline))
    {
        r = rhs.r;
        g = rhs.g;
    164e:	73c2      	strb	r2, [r0, #15]
    1650:	2b01      	cmp	r3, #1
            enable_dithering(dither);
            mData += skip;
            mAdvance = (advance) ? 3+skip : 0;
        }

        PixelController(const CRGB *d, int len, CRGB & s, EDitherMode dither = BINARY_DITHER) : mData((const uint8_t*)d), mLen(len), mScale(s) {
    1652:	4604      	mov	r4, r0
            return mLen >= n;
        }

        // toggle dithering enable
        void enable_dithering(EDitherMode dither) {
            switch(dither) {
    1654:	d102      	bne.n	165c <_ZN15PixelControllerIL6EOrder10EEC1EPK4CRGBiRS2_h+0x22>
                case BINARY_DITHER: init_binary_dithering(); break;
    1656:	f7ff fe45 	bl	12e4 <_ZN15PixelControllerIL6EOrder10EE21init_binary_ditheringEv>
    165a:	e006      	b.n	166a <_ZN15PixelControllerIL6EOrder10EEC1EPK4CRGBiRS2_h+0x30>
                default: d[0]=d[1]=d[2]=e[0]=e[1]=e[2]=0; break;
    165c:	2300      	movs	r3, #0
    165e:	7343      	strb	r3, [r0, #13]
    1660:	7303      	strb	r3, [r0, #12]
    1662:	72c3      	strb	r3, [r0, #11]
    1664:	7283      	strb	r3, [r0, #10]
    1666:	7243      	strb	r3, [r0, #9]
    1668:	7203      	strb	r3, [r0, #8]
            mAdvance = (advance) ? 3+skip : 0;
        }

        PixelController(const CRGB *d, int len, CRGB & s, EDitherMode dither = BINARY_DITHER) : mData((const uint8_t*)d), mLen(len), mScale(s) {
            enable_dithering(dither);
            mAdvance = 3;
    166a:	2303      	movs	r3, #3
    166c:	7463      	strb	r3, [r4, #17]
        }
    166e:	4620      	mov	r0, r4
    1670:	bd10      	pop	{r4, pc}

00001672 <_ZN15P9813ControllerILh10ELh11EL6EOrder10ELh4EE4showEPK4CRGBiS2_>:

	virtual void show(const struct CRGB *data, int nLeds, CRGB scale) {
    1672:	e92d 43f0 	stmdb	sp!, {r4, r5, r6, r7, r8, r9, lr}
    1676:	b089      	sub	sp, #36	; 0x24
    1678:	4605      	mov	r5, r0
		PixelController<RGB_ORDER> pixels(data, nLeds, scale, getDither());
    167a:	7c80      	ldrb	r0, [r0, #18]
    167c:	9000      	str	r0, [sp, #0]

		mSPI.select();
    167e:	3518      	adds	r5, #24
		mSPI.waitFully();
		mSPI.release();
	}

	virtual void show(const struct CRGB *data, int nLeds, CRGB scale) {
		PixelController<RGB_ORDER> pixels(data, nLeds, scale, getDither());
    1680:	a803      	add	r0, sp, #12

		mSPI.waitFully();
		mSPI.release();
	}

	virtual void show(const struct CRGB *data, int nLeds, CRGB scale) {
    1682:	4616      	mov	r6, r2
		PixelController<RGB_ORDER> pixels(data, nLeds, scale, getDither());
    1684:	f7ff ffd9 	bl	163a <_ZN15PixelControllerIL6EOrder10EEC1EPK4CRGBiRS2_h>

		mSPI.select();
    1688:	4628      	mov	r0, r5
    168a:	f7ff fc83 	bl	f94 <_ZN20AVRSoftwareSPIOutputILh10ELh11ELh4EE6selectEv>

		writeBoundary();
    168e:	f7ff fcff 	bl	1090 <_ZN15P9813ControllerILh10ELh11EL6EOrder10ELh4EE13writeBoundaryEv.isra.26>
		for(int i = 0; i < nLeds; i++) {
    1692:	2400      	movs	r4, #0
    1694:	42b4      	cmp	r4, r6
    1696:	da62      	bge.n	175e <_ZN15P9813ControllerILh10ELh11EL6EOrder10ELh4EE4showEPK4CRGBiS2_+0xec>
        template<int SLOT>  __attribute__((always_inline)) inline static uint8_t loadByte(PixelController & pc) { return pc.mData[RO(SLOT)]; }
        template<int SLOT>  __attribute__((always_inline)) inline static uint8_t dither(PixelController & pc, uint8_t b) { return b ? qadd8(b, pc.d[RO(SLOT)]) : 0; }
        template<int SLOT>  __attribute__((always_inline)) inline static uint8_t scale(PixelController & pc, uint8_t b) { return scale8(b, pc.mScale.raw[RO(SLOT)]); }

        // composite shortcut functions for loading, dithering, and scaling
        template<int SLOT>  __attribute__((always_inline)) inline static uint8_t loadAndScale(PixelController & pc) { return scale<SLOT>(pc, pc.dither<SLOT>(pc, pc.loadByte<SLOT>(pc))); }
    1698:	9b03      	ldr	r3, [sp, #12]
        // Some chipsets pre-cycle the first byte, which means we want to cycle byte 0's dithering separately
        __attribute__((always_inline)) inline void preStepFirstByteDithering() {
            d[RO(0)] = e[RO(0)] - d[RO(0)];
        }

        template<int SLOT>  __attribute__((always_inline)) inline static uint8_t loadByte(PixelController & pc) { return pc.mData[RO(SLOT)]; }
    169a:	781a      	ldrb	r2, [r3, #0]
        template<int SLOT>  __attribute__((always_inline)) inline static uint8_t dither(PixelController & pc, uint8_t b) { return b ? qadd8(b, pc.d[RO(SLOT)]) : 0; }
    169c:	b122      	cbz	r2, 16a8 <_ZN15P9813ControllerILh10ELh11EL6EOrder10ELh4EE4showEPK4CRGBiS2_+0x36>
         "L_%=: "
         : "+a" (i)
         : "a"  (j) );
    return i;
#elif QADD8_ARM_DSP_ASM == 1
    asm volatile( "uqadd8 %0, %0, %1" : "+r" (i) : "r" (j));
    169e:	f89d 1014 	ldrb.w	r1, [sp, #20]
    16a2:	fa82 f251 	uqadd8	r2, r2, r1
    16a6:	b2d2      	uxtb	r2, r2
        template<int SLOT>  __attribute__((always_inline)) inline static uint8_t scale(PixelController & pc, uint8_t b) { return scale8(b, pc.mScale.raw[RO(SLOT)]); }

        // composite shortcut functions for loading, dithering, and scaling
        template<int SLOT>  __attribute__((always_inline)) inline static uint8_t loadAndScale(PixelController & pc) { return scale<SLOT>(pc, pc.dither<SLOT>(pc, pc.loadByte<SLOT>(pc))); }
    16a8:	f89d 101a 	ldrb.w	r1, [sp, #26]
//         4 clocks AVR, 2 clocks ARM
LIB8STATIC uint8_t scale8( uint8_t i, fract8 scale)
{
#if SCALE8_C == 1
    return
    ((int)i * (int)(scale) ) >> 8;
    16ac:	fb12 f201 	smulbb	r2, r2, r1
        // Some chipsets pre-cycle the first byte, which means we want to cycle byte 0's dithering separately
        __attribute__((always_inline)) inline void preStepFirstByteDithering() {
            d[RO(0)] = e[RO(0)] - d[RO(0)];
        }

        template<int SLOT>  __attribute__((always_inline)) inline static uint8_t loadByte(PixelController & pc) { return pc.mData[RO(SLOT)]; }
    16b0:	7859      	ldrb	r1, [r3, #1]
    16b2:	1212      	asrs	r2, r2, #8
    16b4:	fa5f f882 	uxtb.w	r8, r2
        template<int SLOT>  __attribute__((always_inline)) inline static uint8_t dither(PixelController & pc, uint8_t b) { return b ? qadd8(b, pc.d[RO(SLOT)]) : 0; }
    16b8:	b121      	cbz	r1, 16c4 <_ZN15P9813ControllerILh10ELh11EL6EOrder10ELh4EE4showEPK4CRGBiS2_+0x52>
         "L_%=: "
         : "+a" (i)
         : "a"  (j) );
    return i;
#elif QADD8_ARM_DSP_ASM == 1
    asm volatile( "uqadd8 %0, %0, %1" : "+r" (i) : "r" (j));
    16ba:	f89d 0015 	ldrb.w	r0, [sp, #21]
    16be:	fa81 f150 	uqadd8	r1, r1, r0
    16c2:	b2c9      	uxtb	r1, r1
        template<int SLOT>  __attribute__((always_inline)) inline static uint8_t scale(PixelController & pc, uint8_t b) { return scale8(b, pc.mScale.raw[RO(SLOT)]); }

        // composite shortcut functions for loading, dithering, and scaling
        template<int SLOT>  __attribute__((always_inline)) inline static uint8_t loadAndScale(PixelController & pc) { return scale<SLOT>(pc, pc.dither<SLOT>(pc, pc.loadByte<SLOT>(pc))); }
    16c4:	f89d 001b 	ldrb.w	r0, [sp, #27]
        // Some chipsets pre-cycle the first byte, which means we want to cycle byte 0's dithering separately
        __attribute__((always_inline)) inline void preStepFirstByteDithering() {
            d[RO(0)] = e[RO(0)] - d[RO(0)];
        }

        template<int SLOT>  __attribute__((always_inline)) inline static uint8_t loadByte(PixelController & pc) { return pc.mData[RO(SLOT)]; }
    16c8:	789b      	ldrb	r3, [r3, #2]
//         4 clocks AVR, 2 clocks ARM
LIB8STATIC uint8_t scale8( uint8_t i, fract8 scale)
{
#if SCALE8_C == 1
    return
    ((int)i * (int)(scale) ) >> 8;
    16ca:	fb11 f100 	smulbb	r1, r1, r0
    16ce:	1209      	asrs	r1, r1, #8
    16d0:	fa5f f981 	uxtb.w	r9, r1
        template<int SLOT>  __attribute__((always_inline)) inline static uint8_t dither(PixelController & pc, uint8_t b) { return b ? qadd8(b, pc.d[RO(SLOT)]) : 0; }
    16d4:	b123      	cbz	r3, 16e0 <_ZN15P9813ControllerILh10ELh11EL6EOrder10ELh4EE4showEPK4CRGBiS2_+0x6e>
         "L_%=: "
         : "+a" (i)
         : "a"  (j) );
    return i;
#elif QADD8_ARM_DSP_ASM == 1
    asm volatile( "uqadd8 %0, %0, %1" : "+r" (i) : "r" (j));
    16d6:	f89d 0016 	ldrb.w	r0, [sp, #22]
    16da:	fa83 f350 	uqadd8	r3, r3, r0
    16de:	b2db      	uxtb	r3, r3
        template<int SLOT>  __attribute__((always_inline)) inline static uint8_t scale(PixelController & pc, uint8_t b) { return scale8(b, pc.mScale.raw[RO(SLOT)]); }

        // composite shortcut functions for loading, dithering, and scaling
        template<int SLOT>  __attribute__((always_inline)) inline static uint8_t loadAndScale(PixelController & pc) { return scale<SLOT>(pc, pc.dither<SLOT>(pc, pc.loadByte<SLOT>(pc))); }
    16e0:	f89d 701c 	ldrb.w	r7, [sp, #28]
	SPI mSPI;

	void writeBoundary() { mSPI.writeWord(0); mSPI.writeWord(0); }

	inline void writeLed(uint8_t r, uint8_t g, uint8_t b) __attribute__((always_inline)) {
		register uint8_t top = 0xC0 | ((~b & 0xC0) >> 2) | ((~g & 0xC0) >> 4) | ((~r & 0xC0) >> 6);
    16e4:	43d2      	mvns	r2, r2
//         4 clocks AVR, 2 clocks ARM
LIB8STATIC uint8_t scale8( uint8_t i, fract8 scale)
{
#if SCALE8_C == 1
    return
    ((int)i * (int)(scale) ) >> 8;
    16e6:	fb13 f307 	smulbb	r3, r3, r7
    16ea:	121f      	asrs	r7, r3, #8
    16ec:	f3c2 1281 	ubfx	r2, r2, #6, #2
    16f0:	43c9      	mvns	r1, r1
    16f2:	f062 023f 	orn	r2, r2, #63	; 0x3f
    16f6:	f001 01c0 	and.w	r1, r1, #192	; 0xc0
    16fa:	43f8      	mvns	r0, r7
    16fc:	ea42 1111 	orr.w	r1, r2, r1, lsr #4
    1700:	f000 00c0 	and.w	r0, r0, #192	; 0xc0
    1704:	ea41 0090 	orr.w	r0, r1, r0, lsr #2
		mSPI.writeByte(top); mSPI.writeByte(b); mSPI.writeByte(g); mSPI.writeByte(r);
    1708:	b2c0      	uxtb	r0, r0
    170a:	f7ff fc61 	bl	fd0 <_ZN20AVRSoftwareSPIOutputILh10ELh11ELh4EE9writeByteEh>
    170e:	4638      	mov	r0, r7
    1710:	f7ff fc5e 	bl	fd0 <_ZN20AVRSoftwareSPIOutputILh10ELh11ELh4EE9writeByteEh>
    1714:	4648      	mov	r0, r9
    1716:	f7ff fc5b 	bl	fd0 <_ZN20AVRSoftwareSPIOutputILh10ELh11ELh4EE9writeByteEh>
    171a:	4640      	mov	r0, r8
